   1:			;                  ┌╦═══╦┐              ┌╦═══╦┐
   2:			;                  │║   ║│┌╦═══╦┐┌╦═══╦┐│║   ║│┌╦═══╦┐┌╦═╦═╦┐
   3:			;                  │║   ║│├╬══╦╩┤│║  ─╦┬├╬═══╬┤└╩═══╦┐│║ ║ ║│
   4:			;                  └╩═══╩┘└╩  ╚═┘└╩═══╩┘└╩   ╩┘└╩═══╩┘└╩   ╩┘
   5:			;
   6:			; OrgAsm v0.28 is 2-pass assembler for Sprinter computer that was created
   7:			; by Igor Zhadinets in late 2002 - early 2003. Source code of v0.28 was
   8:			; reverse-engineered back from binary v0.28beta and based on availavle
   9:			; source code of older version 0.15 (newer source codes were lost).
  10:			; Recreation work was done by Shaos <me@shaos.net> in December 2020.
  11:			; Most actual source code for OrgAsm will be always available on GitLab:
  12:			;
  13:			; https://gitlab.com/sprinter-computer/apps/-/tree/master/OrgAsm
  14:			;
  15:			; to build use this command: zmac orgasm.asm
  16:			
  17:			;Deb             equ 1           ;1 - асемблить отладочный код
  18:			                                ;0 - не асемблить
  19:			
  20:	4200          	Start           equ #4200
  21:	4000          	                org #4000
  22:			
  23:	4000  455845  	                db "EXE"        ;EXE ID
  24:	4003  00      	                db #00          ;EXE VERSION
  25:	4004  0002    	                dw #0200        ;CODE OFFSET LOW
  26:	4006  0000    	                dw #0000        ;CODE OFFSET HIGH
  27:	4008  0000    	                dw #0000        ;END-BEG ;PRIMARY LOADER
  28:	400A  0000    	                dw #0000        ;
  29:	400C  0000    	                dw #0000        ;RESERVED
  30:	400E  0000    	                dw #0000        ;
  31:	4010  0042    	                dw Start        ;LOAD ADDRESS
  32:	4012  0042    	                dw Start        ;START ADDRESS
  33:	4014  FFBF    	                dw #bfff        ;STACK ADDRESS
  34:	4016          	                ds 490
  35:			
  36:			;
  37:			;Функции DSS Estex
  38:			;
  39:	0002          	CurDisk         equ #02
  40:	000A          	Create          equ #0a
  41:	0011          	Open            equ #11
  42:	0012          	Close           equ #12
  43:	0013          	Read_           equ #13
  44:	0014          	Write           equ #14
  45:	0015          	Move_FP         equ #15
  46:	001E          	CurDir          equ #1e
  47:	0021          	SysTime         equ #21
  48:	0030          	WaitKey         equ #30
  49:	0031          	ScanKey         equ #31
  50:	0038          	SetWin          equ #38
  51:	0039          	SetWin1         equ #39
  52:	003A          	SetWin2         equ #3a
  53:	003B          	SetWin3         equ #3b
  54:	003C          	InfoMem         equ #3c
  55:	003D          	GetMem          equ #3d
  56:	003E          	FreeMem         equ #3e
  57:	003F          	SetMem          equ #3f
  58:	0041          	Exit            equ #41
  59:	0043          	GSwitch         equ #43
  60:	0045          	ExCmdLn         equ #45
  61:	0052          	Locate          equ #52
  62:	0053          	Cursor          equ #53
  63:	0056          	Clear           equ #56
  64:	0058          	WrChar          equ #58
  65:	005B          	PutChar         equ #5b
  66:	005C          	PChars          equ #5c
  67:			;
  68:			;Функции BIOS
  69:			;
  70:	0083          	LP_Print_Atr    equ #83
  71:	00C4          	EMM_Fn4         equ #c4
  72:	00C5          	EMM_Fn5         equ #c5
  73:	00C6          	EMM_Fn6         equ #c6
  74:			;
  75:			;Номера портов
  76:			;
  77:	0082          	Page0           equ #82
  78:	00A2          	Page1           equ #a2
  79:	00C2          	Page2           equ #c2
  80:	00E2          	Page3           equ #e2
  81:			
  82:	4200          	Main
  83:	4200  DDE5    	                push ix         ;адрес параметров командной строки
  84:			
  85:	4202  0E21    	                ld c,SysTime
  86:	4204  D7      	                rst #10         ;время начала компиляции
  87:	4205  22A669  	                ld (TimeComp+1),hl
  88:	4208  78      	                ld a,b
  89:	4209  32A569  	                ld (TimeComp),a
  90:			
  91:			;                ld hl,Hello     ;приветствие программы
  92:			;                ld c,PChars
  93:			;                rst #10
  94:			
  95:	420C  E1      	                pop hl
  96:	420D  7E      	                ld a,(hl)       ;длина параметров командной строки
  97:	420E  B7      	                or a
  98:	420F  CA7748  	                jp z,PrintHelp  ;печать краткой справки по программе
  99:			
 100:	4212  23      	                inc hl          ;пропускаем длину параметров
 101:	4213  11A86E  	                ld de,ComBuffer-1
 102:	4216  47      	                ld b,a
 103:	4217  05      	                dec b
 104:	4218  23      	ComStr2         inc hl
 105:	4219  13      	                inc de
 106:	421A  7E      	                ld a,(hl)       ;очередной байт из ком.строки
 107:	421B  12      	                ld (de),a
 108:	421C  FE20    	                cp #20          ;пробел - разделитель параметров
 109:	421E  2803    	                jr z,ComStr1
 110:	4220  10F6    	                djnz ComStr2
 111:	4222  13      	                inc de
 112:			
 113:	4223  CDF360  	ComStr1         call AddExtAsm  ;проверка наличия расширения
 114:	4226  AF      	                xor a
 115:	4227  12      	                ld (de),a       ;0 - окончание первого параметра
 116:	4228  13      	                inc de
 117:	4229  ED538969	                ld (OutFAdr),de ;адрес имени выходного файла
 118:	422D  04      	                inc b
 119:	422E  05      	ComStr5         dec b
 120:	422F  CACC42  	                jp z,ComStr4    ;больше нет параметров
 121:	4232  7E      	                ld a,(hl)
 122:	4233  23      	                inc hl
 123:	4234  FE20    	                cp #20
 124:	4236  28F6    	                jr z,ComStr5    ;пропускаем пробелы
 125:			
 126:	4238  DD21CC42	                ld ix,ComStr4
 127:	423C  DDE5    	                push ix         ;на стек адрес возврата после обработки параметров
 128:	423E  FE2F    	                cp "/"          ;установочные параметры
 129:	4240  CA7042  	                jp z,ComStr10
 130:	4243  FE2D    	                cp "-"
 131:	4245  CA7042  	                jp z,ComStr10
 132:	4248  DDE1    	                pop ix          ;востанавливаем стек
 133:			
 134:	424A  1B      	                dec de
 135:	424B  2B      	                dec hl
 136:	424C  2B      	                dec hl
 137:	424D  23      	ComStr6         inc hl          ;считываем имя выходного файла из ком.строки
 138:	424E  13      	                inc de
 139:	424F  7E      	                ld a,(hl)       ;очередной байт из ком.строки
 140:	4250  12      	                ld (de),a
 141:	4251  FE20    	                cp #20          ;пробел - разделитель параметров
 142:	4253  2803    	                jr z,ComStr7
 143:	4255  10F6    	                djnz ComStr6
 144:	4257  13      	                inc de
 145:			
 146:	4258  AF      	ComStr7         xor a
 147:	4259  12      	                ld (de),a       ;0 - окончание второго параметра
 148:	425A  13      	                inc de
 149:	425B  ED538569	                ld (RepFAdr),de ;адрес имени выходного файла
 150:	425F  04      	                inc b
 151:	4260  05      	ComStr8         dec b
 152:	4261  CAE442  	                jp z,ComStr9    ;больше нет параметров
 153:	4264  7E      	                ld a,(hl)
 154:	4265  23      	                inc hl
 155:	4266  FE20    	                cp #20
 156:	4268  28F6    	                jr z,ComStr8    ;пропускаем пробелы
 157:			
 158:	426A  DD21E442	                ld ix,ComStr9
 159:	426E  DDE5    	                push ix         ;продолжение после обработки параметров
 160:			
 161:	4270  0EFF    	ComStr10        ld c,#ff
 162:	4272  FE2F    	                cp "/"
 163:	4274  2803    	                jr z,$+5
 164:	4276  FE2D    	                cp "-"
 165:	4278  C0      	                ret nz
 166:	4279  7E      	                ld a,(hl)
 167:	427A  23      	                inc hl
 168:	427B  E6DF    	                and #df
 169:	427D  FE52    	                cp "R"
 170:	427F  2820    	                jr z,ComStr11
 171:	4281  FE43    	                cp "C"
 172:	4283  2822    	                jr z,ComStr12
 173:	4285  FE53    	                cp "S" ; добавлено в v0.2X
 174:	4287  282A    	                jr z,ComStr14
 175:	4289  FE4D    	                cp "M" ; добавлено в v0.2X
 176:	428B  2820    	                jr z,ComStr15
 177:	428D  FE45    	                cp "E"
 178:	428F  C0      	                ret nz
 179:	4290  79      	                ld a,c
 180:	4291  327469  	                ld (GlBufer),a
 181:			
 182:	4294  7E      	ComStr13        ld a,(hl)
 183:	4295  23      	                inc hl
 184:	4296  FE20    	                cp #20
 185:	4298  C0      	                ret nz
 186:	4299  7E      	                ld a,(hl)
 187:	429A  23      	                inc hl
 188:	429B  FE20    	                cp #20
 189:	429D  28FA    	                jr z,$-4
 190:	429F  18D1    	                jr ComStr10+2
 191:			
 192:	42A1  79      	ComStr11        ld a,c
 193:	42A2  327569  	                ld (RepFile),a
 194:	42A5  18ED    	                jr ComStr13
 195:			
 196:	42A7  79      	ComStr12        ld a,c
 197:	42A8  327369  	                ld (CapsLabel),a
 198:	42AB  18E7    	                jr ComStr13
 199:			
 200:	42AD  79      	ComStr15        ld a,c ; новое в v0.2X
 201:	42AE  327669  	                ld (SymFlag),a
 202:	42B1  18E1    	                jr ComStr13
 203:			
 204:	42B3  C5      	ComStr14        push bc ; новое в v0.2X
 205:	42B4  E5      	                push hl
 206:	42B5  0E56    	                ld c,Clear
 207:	42B7  110000  	                ld de,0
 208:	42BA  215020  	                ld hl,#2050
 209:	42BD  0607    	                ld b,7
 210:	42BF  3E20    	                ld a,#20
 211:	42C1  D7      	                rst #10
 212:	42C2  0E52    	                ld c,Locate
 213:	42C4  11001F  	                ld de,#1F00
 214:	42C7  D7      	                rst #10
 215:	42C8  E1      	                pop hl
 216:	42C9  C1      	                pop bc
 217:	42CA  18C8    	                jr ComStr13
 218:			
 219:	42CC  2A8969  	ComStr4         ld hl,(OutFAdr)
 220:	42CF  CD4646  	                call CurSpec    ;создаем имя выходного файла
 221:	42D2  3E65    	                ld a,"e"
 222:	42D4  77      	                ld (hl),a
 223:	42D5  23      	                inc hl
 224:	42D6  3E78    	                ld a,"x"
 225:	42D8  77      	                ld (hl),a
 226:	42D9  23      	                inc hl
 227:	42DA  3E65    	                ld a,"e"
 228:	42DC  77      	                ld (hl),a
 229:	42DD  23      	                inc hl
 230:	42DE  AF      	                xor a
 231:	42DF  77      	                ld (hl),a
 232:	42E0  23      	                inc hl
 233:	42E1  228569  	                ld (RepFAdr),hl ;адрес начала имени файла-репорта в буфере
 234:			
 235:	42E4  2A8569  	ComStr9         ld hl,(RepFAdr) ;создаем имя файла-репорта
 236:	42E7  CD4646  	                call CurSpec
 237:			                ; новое в v0.2X
 238:	42EA  228769  	                ld (SomeAdr),hl
 239:	42ED  3E20    	                ld a,' '
 240:			;                ld a,"r"
 241:	42EF  77      	                ld (hl),a
 242:	42F0  23      	                inc hl
 243:			;                ld a,"e"
 244:	42F1  77      	                ld (hl),a
 245:	42F2  23      	                inc hl
 246:			;                ld a,"p"
 247:	42F3  77      	                ld (hl),a
 248:	42F4  23      	                inc hl
 249:	42F5  AF      	                xor a
 250:	42F6  77      	                ld (hl),a
 251:			
 252:	42F7  217F64  	                ld hl,Hello
 253:	42FA  0E5C    	                ld c,PChars
 254:	42FC  D7      	                rst #10
 255:			
 256:			;                if Deb
 257:			;                call PrintParam
 258:			;                endif
 259:			;
 260:			;Определение текущей конфигурации портов и включенных страниц ОЗУ
 261:			;
 262:	42FD  0EC6    	                ld c,EMM_Fn6
 263:	42FF  AF      	                xor a
 264:	4300  CF      	                rst 8           ;параметры 0-го окна
 265:			;                ld hl,PageW0
 266:	4301  79      	                ld a,c
 267:	4302  FE82    	                cp Page0
 268:	4304  C25048  	                jp nz,ErrorDSS1
 269:			;                ld (hl),b       ;физ.номер страницы, включенной в 0-е окно
 270:			;                inc hl
 271:			;                push hl
 272:			
 273:	4307  0EC6    	                ld c,EMM_Fn6
 274:	4309  3E01    	                ld a,1
 275:	430B  CF      	                rst 8           ;параметры 1-го окна
 276:			;                pop hl
 277:	430C  79      	                ld a,c
 278:	430D  FEA2    	                cp Page1
 279:	430F  C25048  	                jp nz,ErrorDSS1
 280:			;                ld (hl),b       ;физ.номер страницы, включенной в 1-е окно
 281:			;                inc hl
 282:			;                push hl
 283:			
 284:	4312  0EC6    	                ld c,EMM_Fn6
 285:	4314  3E02    	                ld a,2
 286:	4316  CF      	                rst 8           ;параметры 2-го окна
 287:			;                pop hl
 288:	4317  79      	                ld a,c
 289:	4318  FEC2    	                cp Page2
 290:	431A  C25048  	                jp nz,ErrorDSS1
 291:			;                ld (hl),b       ;физ.номер страницы, включенной в 2-е окно
 292:			;                inc hl
 293:			;                push hl
 294:			
 295:	431D  0EC6    	                ld c,EMM_Fn6
 296:	431F  3E03    	                ld a,3
 297:	4321  CF      	                rst 8           ;параметры 3-го окна
 298:			;                pop hl
 299:	4322  79      	                ld a,c
 300:	4323  FEE2    	                cp Page3
 301:	4325  C25048  	                jp nz,ErrorDSS1
 302:			;                ld (hl),b       ;физ.номер страницы, включенной в 3-е окно
 303:			
 304:	4328  31FF7F  	                ld sp,#7fff
 305:	432B  CDB047  	                call MemInfoTotal
 306:	432E  CD9E47  	                call MemInfoFree
 307:			
 308:	4331  0602    	                ld b,2          ;выделение памяти под таблицу меток
 309:	4333  0E3D    	                ld c,GetMem
 310:	4335  D7      	                rst #10
 311:	4336  DA5948  	                jp c,Error
 312:	4339  0602    	                ld b,2
 313:	433B  4F      	                ld c,a
 314:	433C  ED436F69	                ld (MapLabelID),bc
 315:	4340  0600    	                ld b,0
 316:	4342  0E3A    	                ld c,SetWin2
 317:	4344  D7      	                rst #10
 318:	4345  DA5948  	                jp c,Error
 319:	4348  AF      	                xor a
 320:	4349  320080  	                ld (TabLabel),a ;инициализация таблицы меток
 321:			
 322:	434C  0601    	                ld b,1          ;выделение памяти под объектный код
 323:	434E  0E3D    	                ld c,GetMem
 324:	4350  D7      	                rst #10
 325:	4351  DA5948  	                jp c,Error
 326:	4354  0601    	                ld b,1
 327:	4356  4F      	                ld c,a
 328:	4357  ED436D69	                ld (OutFileID),bc
 329:			
 330:	435B  0E3D    	                ld c,GetMem     ;выделение памяти под загружаемые файлы
 331:	435D  D7      	                rst #10
 332:	435E  DA5948  	                jp c,Error
 333:	4361  0601    	                ld b,1
 334:	4363  4F      	                ld c,a
 335:	4364  ED436B69	                ld (InFileID),bc
 336:			
 337:	4368  213066  	                ld hl,Loading
 338:	436B  0E5C    	                ld c,PChars
 339:	436D  D7      	                rst #10         ;печать сообщения о загрузке
 340:	436E  21A96E  	                ld hl,ComBuffer
 341:	4371  CDB446  	                call LoadFile   ;загрузка исходника в память
 342:			;
 343:			;Основной цикл компиляции исходника
 344:			;
 345:	4374  210867  	AsmF2           ld hl,CRLF
 346:	4377  0E5C    	                ld c,PChars
 347:	4379  D7      	                rst #10
 348:	437A  210566  	                ld hl,PassText  ;печать сообщения о номере прохода
 349:	437D  0E5C    	                ld c,PChars
 350:	437F  D7      	                rst #10
 351:			
 352:	4380  210000  	                ld hl,0         ;инициализация переменных
 353:	4383  229769  	                ld (NumString),hl
 354:	4386  229D69  	                ld (ErrorPass),hl
 355:	4389  210081  	                ld hl,#8100
 356:	438C  229F69  	                ld (PCAddres),hl
 357:	438F  ED739569	                ld (RetAddres),sp
 358:	4393  2A9569  	                ld hl,(RetAddres)
 359:	4396  2B      	                dec hl
 360:	4397  2B      	                dec hl
 361:	4398  229569  	                ld (RetAddres),hl
 362:	439B  AF      	                xor a
 363:	439C  328269  	                ld (CurrentFile),a
 364:	439F  32AF6A  	                ld (SomeBuf),a ; новый буфер добавленный в v0.2X
 365:	43A2  3C      	                inc a
 366:	43A3  328169  	                ld (NumOpenFile),a
 367:	43A6  210080  	                ld hl,#8000
 368:	43A9  AF      	                xor a
 369:			
 370:	43AA  329469  	NextOnPage      ld (TextPage),a ;лог.номер банки с исходником
 371:	43AD  CD8546  	                call SetBankAsm
 372:			
 373:	43B0  229969  	AsemblFile      ld (BegString),hl
 374:	43B3  E5      	                push hl
 375:	43B4  2A9769  	                ld hl,(NumString)
 376:	43B7  23      	                inc hl
 377:	43B8  229769  	                ld (NumString),hl
 378:	43BB  119066  	                ld de,Asembling+14
 379:	43BE  CDC447  	                call Hex2Dec    ;вычисление номера текущей строки
 380:	43C1  218266  	                ld hl,Asembling
 381:	43C4  0E5C    	                ld c,PChars
 382:	43C6  D7      	                rst #10         ;печать сообщения о текущей строке
 383:	43C7  E1      	                pop hl
 384:			
 385:	43C8  CD8748  	                call ScanString ;компиляция строки
 386:	43CB  F5      	                push af
 387:	43CC  E5      	                push hl
 388:	43CD  0E31    	                ld c,ScanKey
 389:	43CF  D7      	                rst #10         ;сканирование клавиатуры
 390:	43D0  2829    	                jr z,AsmF7
 391:	43D2  0E53    	                ld c,Cursor
 392:	43D4  D7      	                rst #10         ;положение курсора на экране
 393:	43D5  1E19    	                ld e,25
 394:	43D7  D5      	                push de
 395:	43D8  0E52    	                ld c,Locate
 396:	43DA  D7      	                rst #10         ;новые координаты курсора
 397:	43DB  21BE66  	                ld hl,PrPause
 398:	43DE  0E5C    	                ld c,PChars
 399:	43E0  D7      	                rst #10         ;печать сообщения о паузе
 400:	43E1  0E30    	                ld c,WaitKey
 401:	43E3  D7      	                rst #10         ;ожидание нажатия клавиши
 402:	43E4  FE1B    	                cp #1b          ;нажата <Esc>?
 403:	43E6  CA2748  	                jp z,ExitDSS    ;принудительное завершение работы
 404:	43E9  D1      	                pop de
 405:	43EA  0E52    	                ld c,Locate
 406:	43EC  D7      	                rst #10         ;текущие координаты
 407:	43ED  0632    	                ld b,50
 408:	43EF  0E5B    	                ld c,PutChar
 409:	43F1  C5      	AsmF8           push bc
 410:	43F2  3E20    	                ld a,#20
 411:	43F4  D7      	                rst #10         ;печать пробела в текущей позиции
 412:	43F5  C1      	                pop bc
 413:	43F6  10F9    	                djnz AsmF8
 414:	43F8  3E0D    	                ld a,#0d
 415:	43FA  D7      	                rst #10         ;в начало строки
 416:	43FB  E1      	AsmF7           pop hl
 417:	43FC  F1      	                pop af
 418:			
 419:	43FD  7E      	AsmF5           ld a,(hl)
 420:	43FE  B7      	                or a
 421:	43FF  280D    	                jr z,AsmF1
 422:			
 423:	4401  CB74    	                bit 6,h         ;проверка перехода адреса в 3-е окно
 424:	4403  28AB    	                jr z,AsemblFile
 425:	4405  CBB4    	                res 6,h
 426:			
 427:	4407  3A9469  	                ld a,(TextPage)
 428:	440A  3C      	                inc a           ;подключение очередных банок
 429:	440B  C3AA43  	                jp NextOnPage
 430:			
 431:	440E  3A8269  	AsmF1           ld a,(CurrentFile)
 432:	4411  CDA646  	                call GoSpec     ;спецификация текущего файла
 433:	4414  110800  	                ld de,#0008
 434:	4417  19      	                add hl,de
 435:	4418  7E      	                ld a,(hl)       ;файл-родитель
 436:	4419  3C      	                inc a
 437:	441A  2862    	                jr z,AsmF4      ;нет include-файлов
 438:			
 439:	441C  3D      	                dec a
 440:	441D  328269  	                ld (CurrentFile),a
 441:	4420  CDA646  	                call GoSpec     ;спецификация файла-родителя
 442:	4423  E5      	                push hl
 443:	4424  E5      	                push hl
 444:	4425  210867  	                ld hl,CRLF
 445:	4428  0E5C    	                ld c,PChars
 446:	442A  D7      	                rst #10         ;переход на новую строку
 447:	442B  216F66  	                ld hl,Continue
 448:	442E  0E5C    	                ld c,PChars
 449:	4430  D7      	                rst #10         ;печать сообщения о возврате к файлу-родителю
 450:	4431  E1      	                pop hl
 451:	4432  110800  	                ld de,#0008
 452:	4435  19      	                add hl,de
 453:	4436  7E      	                ld a,(hl)       ;файл-родитель
 454:	4437  3C      	                inc a
 455:	4438  281C    	                jr z,AsmF6
 456:	443A  3D      	                dec a
 457:	443B  CDA646  	                call GoSpec     ;родитель файла-родителя
 458:	443E  23      	                inc hl
 459:	443F  23      	                inc hl
 460:	4440  23      	                inc hl
 461:	4441  7E      	                ld a,(hl)       ;лог.номер банки с исходником
 462:	4442  CD8546  	                call SetBankAsm
 463:	4445  23      	                inc hl
 464:	4446  5E      	                ld e,(hl)
 465:	4447  23      	                inc hl
 466:	4448  56      	                ld d,(hl)
 467:	4449  EB      	                ex de,hl        ;в hl - адрес строки со специф. файла
 468:	444A  11AE6B  	                ld de,DataBuf
 469:	444D  D5      	                push de
 470:	444E  3E20    	                ld a,#20        ;код пробела
 471:	4450  CD8860  	                call SpecFile   ;имя файла в буфер
 472:	4453  E1      	                pop hl
 473:	4454  1803    	                jr $+5
 474:	4456  21A96E  	AsmF6           ld hl,ComBuffer
 475:	4459  CDC560  	                call PrString   ;печать имени файла
 476:			
 477:	445C  E1      	                pop hl
 478:	445D  23      	                inc hl
 479:	445E  23      	                inc hl
 480:	445F  23      	                inc hl
 481:	4460  7E      	                ld a,(hl)       ;лог.N банки, в которой был встречен include
 482:	4461  329469  	                ld (TextPage),a
 483:	4464  23      	                inc hl
 484:	4465  CD8546  	                call SetBankAsm ;включаем исходник-родитель
 485:	4468  5E      	                ld e,(hl)
 486:	4469  23      	                inc hl
 487:	446A  56      	                ld d,(hl)       ;адрес строки
 488:	446B  23      	                inc hl
 489:	446C  4E      	                ld c,(hl)
 490:	446D  23      	                inc hl
 491:	446E  46      	                ld b,(hl)       ;номер строки компиляции
 492:	446F  ED439769	                ld (NumString),bc
 493:	4473  23      	                inc hl
 494:	4474  46      	                ld b,(hl)
 495:	4475  EB      	                ex de,hl        ;в hl - адрес строки со специф. файла
 496:	4476  3E20    	                ld a,#20        ;код пробела
 497:	4478  CD7A60  	                call SStrC2     ;пропускаем строку
 498:	447B  C3FD43  	                jp AsmF5
 499:			
 500:	447E  3A7769  	AsmF4           ld a,(PhaseFlag);вначале проверяем все флаги
 501:	4481  2A9969  	                ld hl,(BegString)
 502:	4484  0607    	                ld b,DephaseEr  ;код ошибки "Отсутствует оператор DEPHASE"
 503:	4486  B7      	                or a
 504:	4487  C41862  	                call nz,ErrorAsm;вывод сообщения об ошибке
 505:			
 506:	448A  2A9D69  	                ld hl,(ErrorPass)
 507:	448D  7D      	                ld a,l
 508:	448E  B4      	                or h            ;проверка наличия ошибок
 509:	448F  2817    	                jr z,AsmF3
 510:	4491  E5      	                push hl
 511:	4492  210867  	                ld hl,CRLF
 512:	4495  0E5C    	                ld c,PChars
 513:	4497  D7      	                rst #10         ;перевод строки
 514:	4498  E1      	                pop hl
 515:	4499  119F66  	                ld de,Errors+8
 516:	449C  CDC447  	                call Hex2Dec    ;кол-во ошибок
 517:	449F  219766  	                ld hl,Errors
 518:	44A2  0E5C    	                ld c,PChars
 519:	44A4  D7      	                rst #10         ;печать сообщения о кол-ве ошибок
 520:	44A5  C32748  	                jp ExitDSS
 521:			
 522:	44A8  0E53    	AsmF3           ld c,Cursor
 523:	44AA  D7      	                rst #10         ;текущие координаты
 524:	44AB  1E1E    	                ld e,30
 525:	44AD  0E52    	                ld c,Locate
 526:	44AF  D7      	                rst #10         ;установка координат
 527:	44B0  210B67  	                ld hl,c0
 528:	44B3  0E5C    	                ld c,PChars
 529:	44B5  D7      	                rst #10         ;печать сообщения о успешном завершении
 530:	44B6  3A6A69  	                ld a,(Pass)
 531:	44B9  B7      	                or a
 532:	44BA  200C    	                jr nz,SaveOutF
 533:	44BC  3D      	                dec a           ;установка 2-го прохода
 534:	44BD  326A69  	                ld (Pass),a
 535:	44C0  3E32    	                ld a,"2"
 536:	44C2  320A66  	                ld (PassText+5),a
 537:	44C5  C37443  	                jp AsmF2
 538:			;
 539:			;Запись выходного файла
 540:			;Запись производится страницами по 16к через 3-е окно
 541:			;
 542:	44C8  213E66  	SaveOutF        ld hl,Saving
 543:	44CB  0E5C    	                ld c,PChars
 544:	44CD  D7      	                rst #10         ;сообшение о записи файла
 545:	44CE  2A8969  	                ld hl,(OutFAdr)
 546:	44D1  CDC560  	                call PrString   ;печать имени файла
 547:			;                ld hl,CRLF
 548:			;                ld c,PChars
 549:			;                rst #10         ;перевод строки
 550:			
 551:			                ; новое в v0.2X
 552:			
 553:	44D4  2A8969  	                ld hl,(OutFAdr)
 554:	44D7  CDA245  	                call CreateSub    ;вызов подпрограммы создания файла
 555:	44DA  2A8769  	                ld hl,(SomeAdr)
 556:	44DD  3E6C    	                ld a,'l'
 557:	44DF  77      	                ld (hl),a
 558:	44E0  23      	                inc hl
 559:	44E1  3E61    	                ld a,'a'
 560:	44E3  77      	                ld (hl),a
 561:	44E4  23      	                inc hl
 562:	44E5  3E62    	                ld a,'b'
 563:	44E7  77      	                ld (hl),a
 564:	44E8  AF      	                xor a
 565:	44E9  327469  	                ld (GlBufer),a
 566:	44EC  3D      	                dec a
 567:	44ED  328B69  	                ld (Operand1),a
 568:	44F0  210E66  	                ld hl,Scanning
 569:	44F3  0E5C    	                ld c,PChars
 570:	44F5  D7      	                rst #10         ;сообшение о сканировании
 571:	44F6  CD1561  	                call NewSub
 572:	44F9  3A6E69  	                ld a,(OutFileID+1) ; ???
 573:	44FC  3D      	                dec a
 574:	44FD  200A    	                jr nz,SOF01
 575:	44FF  ED5B7F69	                ld de,(SaveObjAdr)
 576:	4503  3E80    	                ld a,#80
 577:	4505  92      	                sub d
 578:	4506  B3      	                or e
 579:	4507  2812    	                jr z,SOF02
 580:	4509  214066  	SOF01           ld hl,Saving+2  ;пропускаем CRLF
 581:	450C  0E5C    	                ld c,PChars
 582:	450E  D7      	                rst #10         ;сообщение о сохранении
 583:	450F  2A8569  	                ld hl,(RepFAdr)
 584:	4512  CDC560  	                call PrString
 585:	4515  2A8569  	                ld hl,(RepFAdr)
 586:	4518  CDA245  	                call CreateSub
 587:	451B  3A7669  	SOF02           ld a,(SymFlag)
 588:	451E  B7      	                or a
 589:	451F  2837    	                jr z,TimeCalc
 590:	4521  2A8769  	                ld hl,(SomeAdr)
 591:	4524  3E6D    	                ld a,'m'
 592:	4526  77      	                ld (hl),a
 593:	4527  23      	                inc hl
 594:	4528  3E61    	                ld a,'a'
 595:	452A  77      	                ld (hl),a
 596:	452B  23      	                inc hl
 597:	452C  3E70    	                ld a,'p'
 598:	452E  77      	                ld (hl),a
 599:	452F  AF      	                xor a
 600:	4530  328B69  	                ld (Operand1),a
 601:	4533  CD1561  	                call NewSub
 602:	4536  3A6E69  	                ld a,(OutFileID+1) ; ???
 603:	4539  3D      	                dec a
 604:	453A  200A    	                jr nz,SOF04
 605:	453C  ED5B7F69	                ld de,(SaveObjAdr)
 606:	4540  3E80    	                ld a,#80
 607:	4542  92      	                sub d
 608:	4543  B3      	                or e
 609:	4544  2812    	                jr z,TimeCalc
 610:	4546  214066  	SOF04           ld hl,Saving+2 ;пропускаем CRLF
 611:	4549  0E5C    	                ld c,PChars
 612:	454B  D7      	                rst #10
 613:	454C  2A8569  	                ld hl,(RepFAdr)
 614:	454F  CDC560  	                call PrString
 615:	4552  2A8569  	                ld hl,(RepFAdr)
 616:	4555  CDA245  	                call CreateSub
 617:			;
 618:			;Расчет времени компиляции
 619:			;
 620:	4558  0E21    	TimeCalc        ld c,SysTime
 621:	455A  D7      	                rst #10         ;время оконочания компиляции
 622:	455B  3AA569  	                ld a,(TimeComp) ;секунды,
 623:	455E  ED5BA669	                ld de,(TimeComp+1);часы и минуты начала компиляции
 624:	4562  4F      	                ld c,a
 625:	4563  78      	                ld a,b
 626:	4564  063C    	                ld b,60
 627:	4566  91      	                sub c
 628:	4567  4F      	                ld c,a          ;кол-во секунд компиляции
 629:	4568  300A    	                jr nc,TC1
 630:	456A  80      	                add a,b
 631:	456B  4F      	                ld c,a          ;корректировка секунд
 632:	456C  7D      	                ld a,l          ;и минут
 633:	456D  D601    	                sub 1
 634:	456F  6F      	                ld l,a
 635:	4570  3002    	                jr nc,TC1
 636:	4572  80      	                add a,b
 637:	4573  6F      	                ld l,a          ;корректировка минут
 638:	4574  7D      	TC1             ld a,l
 639:	4575  93      	                sub e
 640:	4576  3001    	                jr nc,TC2
 641:	4578  80      	                add a,b
 642:	4579  C5      	TC2             push bc
 643:	457A  2600    	                ld h,0
 644:	457C  6F      	                ld l,a
 645:	457D  11FE66  	                ld de,PrTimeComp+16 ;место для минут
 646:	4580  018945  	                ld bc,TC3
 647:	4583  C5      	                push bc
 648:	4584  D5      	                push de
 649:	4585  13      	                inc de
 650:	4586  C3F247  	                jp Hex2Dec2     ;минуты в строку
 651:	4589  C1      	TC3             pop bc
 652:	458A  2600    	                ld h,0
 653:	458C  69      	                ld l,c
 654:	458D  110167  	                ld de,PrTimeComp+19 ;место для секунд
 655:	4590  019945  	                ld bc,TC4
 656:	4593  C5      	                push bc
 657:	4594  D5      	                push de
 658:	4595  13      	                inc de
 659:	4596  C3F247  	                jp Hex2Dec2     ;секунды в строку
 660:	4599  21EE66  	TC4             ld hl,PrTimeComp
 661:	459C  0E5C    	                ld c,PChars
 662:	459E  D7      	                rst #10         ;печать сообщения о времени компиляции
 663:			
 664:	459F  C32748  	                jp ExitDSS
 665:			
 666:	45A2          	CreateSub ;в v0.2X это теперь подпрограмма
 667:	45A2  3E20    	                ld a,00100000b  ;атрибут файла
 668:	45A4  0E0A    	                ld c,Create
 669:	45A6  D7      	                rst #10         ;создание выходного файла
 670:	45A7  DA5948  	                jp c,Error      ;открываем файл для записи
 671:	45AA  326969  	                ld (OpenFile),a ;файловый манипулятор
 672:	45AD  3A7469  	                ld a,(GlBufer)  ;добавлено в v0.2X
 673:	45B0  B7      	                or a
 674:	45B1  2843    	                jr z,SOF1A
 675:	45B3  21AE6B  	                ld hl,DataBuf
 676:	45B6  010002  	                ld bc,#0200
 677:	45B9  54      	                ld d,h
 678:	45BA  5D      	                ld e,l
 679:	45BB  13      	                inc de
 680:	45BC  AF      	                xor a
 681:	45BD  77      	                ld (hl),a
 682:	45BE  E5      	                push hl
 683:	45BF  C5      	                push bc
 684:	45C0  E5      	                push hl
 685:	45C1  EDB0    	                ldir
 686:	45C3  E1      	                pop hl
 687:	45C4  3E45    	                ld a,"E"
 688:	45C6  77      	                ld (hl),a
 689:	45C7  23      	                inc hl
 690:	45C8  3658    	                ld (hl),"X"
 691:	45CA  23      	                inc hl
 692:	45CB  77      	                ld (hl),a
 693:	45CC  23      	                inc hl
 694:	45CD  23      	                inc hl
 695:	45CE  23      	                inc hl
 696:	45CF  3602    	                ld (hl),#02
 697:	45D1  21BE6B  	                ld hl,DataBuf+16 ; ???
 698:	45D4  ED5B7869	                ld de,(New1)
 699:	45D8  73      	                ld (hl),e
 700:	45D9  23      	                inc hl
 701:	45DA  72      	                ld (hl),d
 702:	45DB  ED5B7A69	                ld de,(New2)
 703:	45DF  23      	                inc hl
 704:	45E0  73      	                ld (hl),e
 705:	45E1  23      	                inc hl
 706:	45E2  72      	                ld (hl),d
 707:	45E3  ED5B7C69	                ld de,(New3)
 708:	45E7  23      	                inc hl
 709:	45E8  73      	                ld (hl),e
 710:	45E9  23      	                inc hl
 711:	45EA  72      	                ld (hl),d
 712:	45EB  D1      	                pop de
 713:	45EC  E1      	                pop hl
 714:			
 715:	45ED  3A6969  	                ld a,(OpenFile) ;файловый манипулятор
 716:	45F0  0E14    	                ld c,Write
 717:	45F2  D7      	                rst #10         ;запись блока в память
 718:	45F3  DA5948  	                jp c,Error
 719:			
 720:	45F6  ED4B6D69	SOF1A           ld bc,(OutFileID)
 721:	45FA  79      	                ld a,c          ;ID блока памяти с выходным кодом
 722:	45FB  48      	                ld c,b          ;кол-во записываемых банок
 723:	45FC  0600    	                ld b,0
 724:			
 725:	45FE  F5      	SOF1            push af
 726:	45FF  C5      	                push bc
 727:	4600  0E3B    	                ld c,SetWin3
 728:	4602  D7      	                rst #10         ;банку в 3-тье окно
 729:	4603  DA5948  	                jp c,Error
 730:			
 731:	4606  C1      	                pop bc
 732:	4607  C5      	                push bc
 733:	4608  0D      	                dec c           ;проверка на наличие еще не записанных банок
 734:	4609  2815    	                jr z,SOF100
 735:			
 736:	460B  110040  	                ld de,16384     ;объем записываемого кода
 737:	460E  2100C0  	                ld hl,#c000     ;начало в памяти
 738:	4611  3A6969  	                ld a,(OpenFile) ;файловый манипулятор
 739:	4614  0E14    	                ld c,Write
 740:	4616  D7      	                rst #10         ;запись блока в память
 741:	4617  DA5948  	                jp c,Error
 742:			
 743:	461A  C1      	                pop bc
 744:	461B  F1      	                pop af
 745:	461C  04      	                inc b
 746:	461D  0D      	                dec c
 747:	461E  18DE    	                jr SOF1
 748:			
 749:	4620  C1      	SOF100          pop bc
 750:	4621  F1      	                pop af
 751:	4622  B7      	                or a
 752:	4623  010080  	                ld bc,#8000
 753:	4626  2A7F69  	                ld hl,(SaveObjAdr)
 754:	4629  ED42    	                sbc hl,bc       ;вычисление объема хвоста файла
 755:	462B  EB      	                ex de,hl
 756:	462C  2100C0  	                ld hl,#c000     ;начало кода
 757:	462F  3A6969  	                ld a,(OpenFile) ;файловый манипулятор
 758:	4632  0E14    	                ld c,Write
 759:	4634  D7      	                rst #10         ;запись остатка файла
 760:	4635  DA5948  	                jp c,Error
 761:			
 762:			                ;новое в v0.2X
 763:	4638  3A6969  	                ld a,(OpenFile)
 764:	463B  0E12    	                ld c,Close
 765:	463D  D7      	                rst #10
 766:	463E  DA5948  	                jp c,Error
 767:			
 768:	4641  AF      	                xor a
 769:	4642  326969  	                ld (OpenFile),a
 770:	4645  C9      	                ret
 771:			;
 772:			;Создание строки: текущий диск, текущий путь, имя основного файла
 773:			;Вход: HL - буфер под выходную строку
 774:			;
 775:	4646  E5      	CurSpec         push hl
 776:	4647  0E02    	                ld c,CurDisk
 777:	4649  D7      	                rst #10         ;текущий диск
 778:	464A  DA5948  	                jp c,Error
 779:	464D  C661    	                add a,#61       ;имя текущего диска
 780:	464F  77      	                ld (hl),a
 781:	4650  23      	                inc hl
 782:	4651  3E3A    	                ld a,":"
 783:	4653  77      	                ld (hl),a
 784:	4654  23      	                inc hl
 785:			
 786:	4655  0E1E    	                ld c,CurDir
 787:	4657  D7      	                rst #10         ;текущий каталог
 788:	4658  DA5948  	                jp c,Error
 789:	465B  1B      	                dec de
 790:	465C  1B      	                dec de
 791:	465D  1A      	                ld a,(de)
 792:	465E  13      	                inc de
 793:	465F  FE5C    	                cp '\'
 794:	4661  2804    	                jr z,CurSpec1
 795:	4663  3E5C    	                ld a,'\'
 796:	4665  12      	                ld (de),a
 797:	4666  13      	                inc de
 798:	4667  21A96E  	CurSpec1        ld hl,ComBuffer
 799:	466A  014503  	                ld bc,#0345
 800:	466D  D7      	                rst #10         ;имя файлаOD
 801:	466E  DA5948  	                jp c,Error
 802:	4671  E1      	                pop hl
 803:	4672  3E2E    	                ld a,"."
 804:	4674  010001  	                ld bc,#0100
 805:	4677  EDB1    	                cpir
 806:	4679  3E10    	                ld a,#10
 807:	467B  C25948  	                jp nz,Error
 808:	467E  C9      	                ret
 809:			
 810:	467F  ED5B6F69	SetBankMap      ld de,(MapLabelID)
 811:	4683  1804    	                jr SetBankAsm1
 812:			;
 813:			;Включение банок с исходниками во 2-е и 3-е окна
 814:			;Вход: A - лог.номер банки
 815:			;
 816:	4685          	SetBankAsm
 817:			;                push hl
 818:	4685  ED5B6B69	                ld de,(InFileID);id блока памяти с исходниками и размер блока
 819:	4689  47      	SetBankAsm1     ld b,a
 820:	468A  7A      	                ld a,d
 821:	468B  90      	                sub b
 822:	468C  4F      	                ld c,a          ;оставшееся кол-во страниц
 823:	468D  7B      	                ld a,e          ;ID блока памяти
 824:	468E  E5      	                push hl ;добавлено в v0.2X
 825:	468F  F5      	                push af
 826:	4690  C5      	                push bc
 827:			
 828:	4691  0E3A    	                ld c,SetWin2
 829:	4693  D7      	                rst #10         ;включили страницу во второе окно
 830:	4694  DA5948  	                jp c,Error
 831:			
 832:	4697  C1      	                pop bc
 833:	4698  F1      	                pop af
 834:	4699  E1      	                pop hl
 835:	469A  0D      	                dec c
 836:	469B  C8      	                ret z
 837:	469C  04      	                inc b
 838:	469D  E5      	                push hl
 839:			
 840:	469E  0E3B    	                ld c,SetWin3
 841:	46A0  D7      	                rst #10         ;включили страницу в третье окно
 842:	46A1  DA5948  	                jp c,Error
 843:			
 844:	46A4  E1      	                pop hl
 845:	46A5  C9      	                ret
 846:			;
 847:			;Расчет адреса начала спецификации файла
 848:			;Вход: A - номер файла
 849:			;Выход: HL - адрес начала спецификации
 850:			;
 851:	46A6  2600    	GoSpec          ld h,0
 852:	46A8  6F      	                ld l,a
 853:	46A9  E5      	                push hl
 854:	46AA  29      	                add hl,hl       ;*2
 855:	46AB  29      	                add hl,hl       ;*4
 856:	46AC  29      	                add hl,hl       ;*8
 857:	46AD  D1      	                pop de
 858:	46AE  19      	                add hl,de       ;*9
 859:	46AF  11007C  	                ld de,TblLoadFile
 860:	46B2  19      	                add hl,de       ;начало описателя файла в таблице
 861:	46B3  C9      	                ret
 862:			;
 863:			;Загрузка файла в память
 864:			;Вход:HL - строка с именем файла
 865:			;Выход: HL - адрес загрузки файла
 866:			;Загрузка производится блоками по 16к через 3-е окно
 867:			;
 868:	46B4          	LoadFile
 869:	46B4  E5      	                push hl
 870:	46B5  CDC560  	                call PrString   ;имя загружаемого файла на экран
 871:	46B8  E1      	                pop hl
 872:			
 873:	46B9  3A6A69  	                ld a,(Pass)     ;номер прохода
 874:	46BC  B7      	                or a
 875:	46BD  281B    	                jr z,LF5        ;переход на загрузку файла в память
 876:			
 877:	46BF  3A8169  	                ld a,(NumOpenFile);номер загружаемого файла
 878:	46C2  3C      	                inc a           ;номер для слдующего файла
 879:	46C3  328169  	                ld (NumOpenFile),a
 880:	46C6  3D      	                dec a
 881:	46C7  328269  	                ld (CurrentFile),a
 882:	46CA  CDA646  	                call GoSpec     ;спецификация включаемого файла
 883:	46CD  7E      	                ld a,(hl)
 884:	46CE  329469  	                ld (TextPage),a ;1-ая лог.банка с исходником
 885:	46D1  23      	                inc hl
 886:	46D2  5E      	                ld e,(hl)       ;адрес загрузки в страницу
 887:	46D3  23      	                inc hl
 888:	46D4  56      	                ld d,(hl)
 889:	46D5  EB      	                ex de,hl
 890:	46D6  E5      	                push hl
 891:	46D7  C37B47  	                jp LF6
 892:			
 893:	46DA  3E01    	LF5             ld a,1
 894:	46DC  0E11    	                ld c,Open
 895:	46DE  D7      	                rst #10         ;открываем файл на чтение
 896:	46DF  DA5948  	                jp c,Error
 897:	46E2  326969  	                ld (OpenFile),a ;файловый манипулятор
 898:			
 899:	46E5  ED4B6B69	                ld bc,(InFileID);ID блока с исходниками
 900:	46E9  2A8369  	                ld hl,(AdrOpenFile);адрес начала загрузки файла
 901:	46EC  23      	                inc hl
 902:	46ED  05      	                dec b           ;номер последней лог.страницы в блоке
 903:	46EE  CD8B47  	                call ExtMemLF   ;расширить блок, если нужно
 904:			
 905:	46F1  E5      	                push hl         ;адрес загрузки файла в 3 окно
 906:	46F2  E5      	                push hl
 907:	46F3  E5      	                push hl
 908:	46F4  3A8169  	                ld a,(NumOpenFile)
 909:	46F7  3C      	                inc a
 910:	46F8  200B    	                jr nz,LF1
 911:			
 912:	46FA  2A9969  	                ld hl,(BegString)
 913:	46FD  0609    	                ld b,IncludeEr  ;ошибка "Слишком много include файлов"
 914:	46FF  CD1862  	                call ErrorAsm   ;печать сообщения об ошибке
 915:	4702  C32748  	                jp ExitDSS      ;выход из программы
 916:			
 917:	4705  328169  	LF1             ld (NumOpenFile),a
 918:	4708  3D      	                dec a
 919:	4709  CDA646  	                call GoSpec     ;начало спецификации файла
 920:	470C  D1      	                pop de
 921:	470D  F5      	                push af
 922:	470E  78      	                ld a,b
 923:	470F  3D      	                dec a
 924:	4710  77      	                ld (hl),a       ;лог.номер банки в блоке -1
 925:	4711  329469  	                ld (TextPage),a ;лог.банка с началом загруженного файла -1
 926:	4714  23      	                inc hl
 927:	4715  73      	                ld (hl),e       ;адрес загрузки файла, мл.байт
 928:	4716  23      	                inc hl
 929:	4717  72      	                ld (hl),d       ;адрес загрузки файла, ст.байт
 930:	4718  110600  	                ld de,#0006
 931:	471B  19      	                add hl,de
 932:	471C  3A8269  	                ld a,(CurrentFile)
 933:	471F  77      	                ld (hl),a       ;файл-родитель
 934:	4720  F1      	                pop af
 935:	4721  328269  	                ld (CurrentFile),a
 936:			
 937:	4724  C5      	LF4             push bc
 938:	4725  79      	                ld a,c
 939:	4726  0E3B    	                ld c,SetWin3
 940:	4728  D7      	                rst #10         ;банку в 3-е окно
 941:	4729  DA5948  	                jp c,Error
 942:	472C  C1      	                pop bc
 943:	472D  D1      	                pop de
 944:	472E  210000  	                ld hl,#0000
 945:	4731  B7      	                or a
 946:	4732  ED52    	                sbc hl,de
 947:	4734  EB      	                ex de,hl        ;DE - кол-во загружаемых байт
 948:	4735  C5      	                push bc
 949:	4736  E5      	                push hl
 950:	4737  3A6969  	                ld a,(OpenFile) ;файловый манипулятор
 951:	473A  0E13    	                ld c,Read_
 952:	473C  D7      	                rst #10         ;читаем файл в память
 953:	473D  DA5948  	                jp c,Error
 954:			
 955:	4740  B7      	                or a            ;прочитаны все байты?
 956:	4741  2008    	                jr nz,LF3
 957:			
 958:	4743  E1      	                pop hl
 959:	4744  C1      	                pop bc
 960:	4745  CD8E47  	                call ExtMemLF1  ;расширяем блок памяти
 961:	4748  E5      	                push hl
 962:	4749  18D9    	                jr LF4
 963:			
 964:	474B  E1      	LF3             pop hl          ;адрес начала загрузки
 965:	474C  C1      	                pop bc          ;номер последней лог.страницы и id-блока
 966:	474D  19      	                add hl,de       ;первый байт после загруженного файла
 967:	474E  E5      	                push hl
 968:	474F  3E0D    	                ld a,#0d        ;символ окончания строки
 969:	4751  2B      	                dec hl
 970:	4752  BE      	                cp (hl)         ;есть символы окончания строки?
 971:	4753  280B    	                jr z,LF7
 972:	4755  2B      	                dec hl
 973:	4756  BE      	                cp (hl)
 974:	4757  2807    	                jr z,LF7
 975:	4759  E1      	                pop hl
 976:	475A  77      	                ld (hl),a       ;записываем код окончания строки
 977:	475B  23      	                inc hl
 978:	475C  CD8B47  	                call ExtMemLF   ;расширяем, если нужно блок
 979:	475F  E5      	                push hl
 980:	4760  E1      	LF7             pop hl
 981:	4761  AF      	                xor a           ;ноль в конец файла
 982:	4762  77      	                ld (hl),a
 983:	4763  228369  	                ld (AdrOpenFile),hl;адрес загрузки следующего файла
 984:	4766  04      	                inc b
 985:	4767  78      	                ld a,b
 986:	4768  326C69  	                ld (InFileID+1),a;новый размер блока памяти
 987:	476B  3A6969  	                ld a,(OpenFile) ;файловый манипулятор
 988:	476E  0E12    	                ld c,Close
 989:	4770  D7      	                rst #10         ;закрываем файл
 990:	4771  DA5948  	                jp c,Error
 991:			
 992:	4774  AF      	                xor a
 993:	4775  326969  	                ld (OpenFile),a ;обнуляем файловый манипулятор
 994:	4778  CD9E47  	                call MemInfoFree;сообщение об оставшейся свободной памяти
 995:	477B  3A9469  	LF6             ld a,(TextPage)
 996:	477E  47      	                ld b,a
 997:	477F  04      	                inc b           ;номер банки с началом файла
 998:	4780  3A6B69  	                ld a,(InFileID) ;id блока с исходниками
 999:	4783  0E3B    	                ld c,SetWin3
1000:	4785  D7      	                rst #10         ;включаем в 3-е окно
1001:	4786  DA5948  	                jp c,Error
1002:			
1003:	4789  E1      	                pop hl
1004:	478A  C9      	                ret
1005:			;
1006:			;Расширение блока памяти для загружаемых листингов
1007:			;HL - адрес загрузки; BC - лог.номер последней страницы и id блока
1008:			;
1009:	478B  AF      	ExtMemLF        xor a
1010:	478C  BC      	                cp h            ;нужна ли новая банка?
1011:	478D  C0      	                ret nz
1012:			
1013:	478E  04      	ExtMemLF1       inc b
1014:	478F  04      	                inc b
1015:	4790  79      	                ld a,c
1016:	4791  C5      	                push bc         ;размер блока и его id
1017:	4792  0E3F    	                ld c,SetMem
1018:	4794  D7      	                rst #10         ;расширить блок
1019:	4795  DA5948  	                jp c,Error
1020:			
1021:	4798  C1      	                pop bc
1022:	4799  05      	                dec b
1023:	479A  2100C0  	                ld hl,#c000     ;корректируем адрес загрузки
1024:	479D  C9      	                ret
1025:			
1026:			;Вывод на экран строки с информацией о свободной памяти
1027:			;
1028:	479E  0E3C    	MemInfoFree     ld c,InfoMem    ;информация о памяти
1029:	47A0  D7      	                rst #10
1030:			
1031:	47A1  60      	                ld h,b
1032:	47A2  69      	                ld l,c
1033:	47A3  117564  	                ld de,VarFMem
1034:	47A6  CDC047  	                call CalcMem
1035:			
1036:	47A9  216764  	                ld hl,FreeMem1
1037:	47AC  0E5C    	                ld c,PChars
1038:	47AE  D7      	                rst #10         ;печать сообщения
1039:	47AF  C9      	                ret
1040:			;
1041:			;Выводит на экран строку с информацией об общей памяти
1042:			;
1043:	47B0  0E3C    	MemInfoTotal    ld c,InfoMem    ;информация о памяти
1044:	47B2  D7      	                rst #10
1045:			
1046:	47B3  115D64  	                ld de,VarTMem
1047:	47B6  CDC047  	                call CalcMem
1048:			
1049:	47B9  214F64  	                ld hl,TotalMem
1050:	47BC  0E5C    	                ld c,PChars
1051:	47BE  D7      	                rst #10         ;печать сообщения
1052:	47BF  C9      	                ret
1053:			;
1054:			;Производит перевод кол-ва банок в кБ с преобразованием в строку символов
1055:			;
1056:	47C0  29      	CalcMem         add hl,hl       ;вычисление размера памяти в кБ
1057:	47C1  29      	                add hl,hl       ;x4
1058:	47C2  29      	                add hl,hl       ;x8
1059:	47C3  29      	                add hl,hl       ;x16
1060:			
1061:	47C4  D5      	Hex2Dec         push de
1062:	47C5  01F0D8  	                ld bc,-10000
1063:	47C8  3EFF    	                ld a,#ff
1064:	47CA  3C      	                inc a
1065:	47CB  09      	                add hl,bc
1066:	47CC  38FC    	                jr c,$-2
1067:	47CE  ED42    	                sbc hl,bc
1068:	47D0  C630    	                add a,#30
1069:	47D2  12      	                ld (de),a
1070:	47D3  13      	                inc de
1071:			
1072:	47D4  0118FC  	                ld bc,-1000
1073:	47D7  3EFF    	                ld a,#ff
1074:	47D9  3C      	                inc a
1075:	47DA  09      	                add hl,bc
1076:	47DB  38FC    	                jr c,$-2
1077:	47DD  ED42    	                sbc hl,bc
1078:	47DF  C630    	                add a,#30
1079:	47E1  12      	                ld (de),a
1080:	47E2  13      	                inc de
1081:			
1082:	47E3  019CFF  	                ld bc,-100
1083:	47E6  3EFF    	                ld a,#ff
1084:	47E8  3C      	                inc a
1085:	47E9  09      	                add hl,bc
1086:	47EA  38FC    	                jr c,$-2
1087:	47EC  ED42    	                sbc hl,bc
1088:	47EE  C630    	                add a,#30
1089:	47F0  12      	                ld (de),a
1090:	47F1  13      	                inc de
1091:			
1092:	47F2  01F6FF  	Hex2Dec2        ld bc,-10
1093:	47F5  3EFF    	                ld a,#ff
1094:	47F7  3C      	                inc a
1095:	47F8  09      	                add hl,bc
1096:	47F9  38FC    	                jr c,$-2
1097:	47FB  ED42    	                sbc hl,bc
1098:			
1099:	47FD  C630    	                add a,#30
1100:	47FF  12      	                ld (de),a
1101:	4800  13      	                inc de
1102:			
1103:	4801  7D      	                ld a,l
1104:	4802  C630    	                add a,#30
1105:	4804  12      	                ld (de),a
1106:			
1107:	4805  E1      	                pop hl
1108:	4806  3E30    	                ld a,#30
1109:	4808  012004  	                ld bc,#0420
1110:	480B  BE      	H2D1            cp (hl)
1111:	480C  C0      	                ret nz
1112:	480D  71      	                ld (hl),c
1113:	480E  23      	                inc hl
1114:	480F  10FA    	                djnz H2D1
1115:	4811  C9      	                ret
1116:			;
1117:			;Вызов функций DSS с установкой стека и страницы.
1118:			;
1119:	4812          	DSS;             ld (StackPr),sp ;запоминаем текущий стек программы
1120:			;                push af
1121:			;                in a,(#c2)      ;номер страницы, включенной во 2-е окно
1122:			;                ld (PageN),a    ;запоминаем в переменной
1123:			;                ld a,(PageW2)   ;востанавливаем системную страницу
1124:			;                out (#c2),a     ;установили страницу
1125:			;                pop af
1126:			;                ld sp,#bfff     ;установили стек
1127:	4812  08      	                ex af,af' ;'
1128:	4813  D9      	                exx
1129:	4814  F5      	                push af
1130:	4815  C5      	                push bc
1131:	4816  D5      	                push de
1132:	4817  E5      	                push hl
1133:	4818  08      	                ex af,af' ;'
1134:	4819  D9      	                exx
1135:	481A  D7      	                rst #10         ;выполнение функции DSS
1136:	481B  DA5948  	                jp c,Error      ;выход, если произошла ошибка
1137:	481E  08      	                ex af,af' ;'
1138:	481F  D9      	                exx
1139:	4820  E1      	                pop hl
1140:	4821  D1      	                pop de
1141:	4822  C1      	                pop bc
1142:	4823  F1      	                pop af
1143:	4824  08      	                ex af,af' ;'
1144:	4825  D9      	                exx
1145:			;                ld sp,(StackPr) ;установили стек программы
1146:			;                push af
1147:			;                ld a,(PageN)    ;востановили страницу программы
1148:			;                out (#c2),a
1149:			;                pop af
1150:	4826  C9      	                ret
1151:			;
1152:			;Вызов функций BIOS с установкой стека и страницы.
1153:			;
1154:			;BIOS            ld (StackPr),sp ;запоминаем текущий стек программы
1155:			;                push af
1156:			;                in a,(#c2)      ;номер страницы, включенной во 2-е окно
1157:			;                ld (PageN),a    ;запоминаем в переменной
1158:			;                ld a,(PageW2)   ;востанавливаем системную страницу
1159:			;                out (#c2),a     ;установили страницу
1160:			;                pop af
1161:			;                ld sp,#bfff     ;установили стек
1162:			;                ex af,af' ;'
1163:			;                exx
1164:			;                push af
1165:			;                push bc
1166:			;                push de
1167:			;                push hl
1168:			;                ex af,af' ;'
1169:			;                exx
1170:			;                rst #08         ;выполнение функции DSS
1171:			;                jp c,Error      ;выход, если произошла ошибка
1172:			;                ex af,af' ;'
1173:			;                exx
1174:			;                pop hl
1175:			;                pop de
1176:			;                pop bc
1177:			;                pop af
1178:			;                ex af,af' ;'
1179:			;                exx
1180:			;                ld sp,(StackPr) ;установили стек программы
1181:			;                push af
1182:			;                ld a,(PageN)    ;востановили страницу программы
1183:			;                out (#c2),a
1184:			;                pop af
1185:			;                ret
1186:			
1187:			;
1188:			;Выход в DSS с освобождением занятой памяти и закрытием файла
1189:			;
1190:	4827          	ExitDSS
1191:			;                ld a,(PageW2)
1192:			;                out (#c2),a
1193:			;                ld sp,#bfff
1194:	4827  3A6969  	                ld a,(OpenFile) ;проверка, есть ли не закрытый файл
1195:	482A  B7      	                or a
1196:	482B  2806    	                jr z,EDSS1
1197:			
1198:	482D  3A6969  	                ld a,(OpenFile) ;закрываем открытый файл
1199:	4830  0E12    	                ld c,Close
1200:	4832  D7      	                rst #10
1201:			
1202:	4833          	EDSS1
1203:	4833  216B69  	                ld hl,InFileID
1204:	4836  0604    	                ld b,4
1205:	4838  4E      	FrMem2          ld c,(hl)
1206:	4839  23      	                inc hl
1207:	483A  7E      	                ld a,(hl)
1208:	483B  23      	                inc hl
1209:	483C  B7      	                or a
1210:	483D  280B    	                jr z,FrMem1
1211:	483F  E5      	                push hl
1212:	4840  C5      	                push bc
1213:	4841  79      	                ld a,c
1214:	4842  0E3E    	                ld c,FreeMem
1215:	4844  D7      	                rst #10         ;освобождение блока памяти
1216:	4845  DA5948  	                jp c,Error
1217:			
1218:	4848  C1      	                pop bc
1219:	4849  E1      	                pop hl
1220:	484A  10EC    	FrMem1          djnz FrMem2
1221:			
1222:	484C  0E41    	EDSS3           ld c,Exit       ;выход из программы
1223:	484E  D7      	                rst #10
1224:	484F  C9      	                ret
1225:			;
1226:			;Выход из программы с ошибкой
1227:			;
1228:	4850          	ErrorDSS1
1229:	4850  213C64  	                ld hl,ErrorPort
1230:	4853  0E5C    	                ld c,PChars
1231:	4855  D7      	                rst #10
1232:	4856  C32748  	                jp ExitDSS
1233:	4859          	ErrorDSS
1234:			;                push af
1235:			;                ld a,(PageW2)
1236:			;                out (#c2),a     ;установили страницу
1237:			;                pop af
1238:			;                ld sp,#bfff     ;установили стек
1239:			;
1240:	4859          	Error
1241:	4859  FE21    	                cp #21
1242:	485B  3802    	                jr c,Error0     ;код ошибки < 20h ?
1243:	485D  3E20    	                ld a,#20
1244:	485F          	Error0
1245:	485F  87      	                add a,a
1246:	4860  212769  	                ld hl,ErrorTabl
1247:	4863  1600    	                ld d,0
1248:	4865  5F      	                ld e,a
1249:	4866  19      	                add hl,de
1250:	4867  7E      	                ld a,(hl)
1251:	4868  23      	                inc hl
1252:	4869  66      	                ld h,(hl)
1253:	486A  6F      	                ld l,a
1254:			
1255:	486B  0E5C    	                ld c,PChars     ;вывод сообщения об ошибке
1256:	486D  D7      	                rst #10
1257:	486E  210867  	                ld hl,CRLF
1258:	4871  0E5C    	                ld c,PChars
1259:	4873  D7      	                rst #10
1260:	4874  C32748  	                jp ExitDSS
1261:			
1262:			;При отсутствии параметров в командной строке
1263:			;на экран выводится краткий HELP
1264:			;
1265:	4877          	PrintHelp
1266:	4877  217F64  	                ld hl,Hello
1267:	487A  0E5C    	                ld c,PChars
1268:	487C  D7      	                rst #10         ;печать приветствия
1269:	487D  214D65  	                ld hl,Help
1270:	4880  0E5C    	                ld c,PChars
1271:	4882  D7      	                rst #10         ;печать подсказки
1272:	4883  0E41    	                ld c,Exit
1273:	4885  D7      	                rst #10         ;выход из программы
1274:	4886  C9      	                ret
1275:			
1276:			;                include scanstr
1277:			;                include scancmnd
1278:			;                include d_mnem
1279:			;                include d_cmnd
1280:			;                include d_oprnd
1281:			;                include d_label
1282:			;                include calc
1283:			;                include util
1284:			;                include error
1285:			
1286:			                include "scanstr.asm"
**** scanstr.asm ****
   1:			;
   2:			;-- Разбор строки листинга --
   3:			;
   4:			;Вход:		HL - адрес начала строки в памяти
   5:			;Выход: HL - адрес следующей строки в памяти
   6:			;
   7:	4887  AF      	ScanString	xor a		;инициализация переменной значения метки
   8:	4888  329C69  			ld (LabelVar+1),a
   9:			
  10:	488B  7E      			ld a,(hl)
  11:	488C  23      			inc hl
  12:	488D  FE09    			cp #09		;символ табуляции
  13:	488F  283F    			jr z,SS1
  14:	4891  FE20    			cp #20		;символ пробела
  15:	4893  283B    			jr z,SS1
  16:	4895  FE0D    			cp #0d		;конец строки
  17:	4897  CA7660  			jp z,SkipStr
  18:	489A  FE3B    			cp ";"		;комментарий
  19:	489C  CA7660  			jp z,SkipStr
  20:			
  21:	489F  CD7E59  			call ScanLabel	;иначе, ищем метку
  22:	48A2  FE09    			cp #09		;табуляция
  23:	48A4  281A    			jr z,SS7
  24:	48A6  FE20    			cp #20		;пробел
  25:	48A8  2816    			jr z,SS7
  26:	48AA  FE0D    			cp #0d		;конец строки
  27:	48AC  2815    			jr z,SS2
  28:	48AE  FE3B    			cp ";"		;коментарии
  29:	48B0  2811    			jr z,SS2
  30:	48B2  FE3A    			cp ":"		;символ двоеточия
  31:	48B4  C2C159  			jp nz,SL10	;ошибка, неверный символ в имени метки
  32:	48B7  7E      			ld a,(hl)	;пропускаем ":"
  33:	48B8  23      			inc hl
  34:	48B9  FE09    			cp #09		;табуляция
  35:	48BB  CC6860  			call z,SkipSpace
  36:	48BE  FE20    			cp #20		;пробел
  37:	48C0  CC6860  	SS7		call z,SkipSpace
  38:			
  39:	48C3  4F      	SS2		ld c,a
  40:	48C4  3A6A69  			ld a,(Pass)	;номер прохода
  41:	48C7  B7      			or a
  42:	48C8  79      			ld a,c
  43:	48C9  2042    			jr nz,SS5	;если 1-ый проход, то
  44:	48CB  CD035A  			call NewLabel	;заносим ее в таблицу меток
  45:	48CE  1803    			jr SS3
  46:	48D0  CD6860  	SS1		call SkipSpace
  47:	48D3  FE0D    	SS3		cp #0d		;конец строки
  48:	48D5  CA7660  			jp z,SkipStr
  49:	48D8  FE3B    			cp ";"		;комментарий
  50:	48DA  CA7660  			jp z,SkipStr
  51:			;		 cp #09		 ;символ табуляции
  52:			;		 call z,SkipSpace
  53:			;		 cp #20		 ;символ пробела
  54:			;		 call z,SkipSpace
  55:			
  56:	48DD  08      	SS4		ex af,af' ;'
  57:	48DE  AF      			xor a		;инициализация переменных и буферов
  58:	48DF  32A869  			ld (CmndBuf),a
  59:	48E2  328B69  			ld (Operand1),a
  60:	48E5  328C69  			ld (Operand2),a
  61:	48E8  328D69  			ld (Var1),a
  62:	48EB  328E69  			ld (Var1+1),a
  63:	48EE  328F69  			ld (Var2),a
  64:	48F1  08      			ex af,af' ;'
  65:			
  66:	48F2  CD4D49  			call ScanCmnd	;определение команды
  67:			;		 cp ':'
  68:			;		 jr z,SS4
  69:	48F5  7E      			ld a,(hl)
  70:	48F6  23      			inc hl
  71:	48F7  FE09    			cp #09		;символ табуляции
  72:	48F9  CC6860  			call z,SkipSpace
  73:	48FC  FE20    			cp #20		;символ пробела
  74:	48FE  CC6860  			call z,SkipSpace
  75:	4901  FE0D    			cp #0d		;конец строки
  76:	4903  CA7660  			jp z,SkipStr
  77:	4906  FE3B    			cp ";"		;комментарий
  78:	4908  CA7660  			jp z,SkipStr
  79:	490B  18D0    			jr SS4
  80:			;		 jp SkipStr
  81:			
  82:	490D  E5      	SS5		push hl
  83:	490E  F5      			push af
  84:	490F  CD5F60  			call CapsLetter
  85:	4912  FE45    			cp "E"
  86:	4914  2033    			jr nz,SS6
  87:	4916  7E      			ld a,(hl)
  88:	4917  23      			inc hl
  89:	4918  CD5F60  			call CapsLetter
  90:	491B  FE51    			cp "Q"
  91:	491D  202A    			jr nz,SS6
  92:	491F  7E      			ld a,(hl)
  93:	4920  23      			inc hl
  94:	4921  CD5F60  			call CapsLetter
  95:	4924  FE55    			cp "U"
  96:	4926  2021    			jr nz,SS6
  97:	4928  7E      			ld a,(hl)
  98:	4929  23      			inc hl
  99:	492A  FE20    			cp #20 ; пробел
 100:	492C  2804    			jr z,SS8
 101:	492E  FE09    			cp #09 ; табуляция
 102:	4930  2017    			jr nz,SS6 ; начало добавления в v0.2X
 103:	4932  CD905B  	SS8		call GetVar2
 104:	4935  FE3A    			cp ':'
 105:	4937  200C    			jr nz,SS9
 106:	4939  7E      			ld a,(hl)
 107:	493A  23      			inc hl
 108:	493B  FE09    			cp #09 ; табуляция
 109:	493D  CC6860  			call z,SkipSpace
 110:	4940  FE20    			cp #20 ; пробел
 111:	4942  CC6860  			call z,SkipSpace
 112:	4945  D1      	SS9		pop de
 113:	4946  D1      			pop de
 114:	4947  188A    			jr SS3 ; конец добавления в v0.2X
 115:	4949  F1      	SS6		pop af
 116:	494A  E1      			pop hl
 117:	494B  1886    			jr SS3
 118:			
 119:			
 120:			
**** orgasm.asm ****
1287:			                include "scancmnd.asm"
**** scancmnd.asm ****
   1:			;-----------------------------------------------------------------------------
   2:			;--		      Процедуры обработки мнемоник и команд ассемблирования --
   3:			;-----------------------------------------------------------------------------
   4:			;-- Сканирование мнемоники (команд ассемблирования) и операндов --
   5:			;конец команды определяется:
   6:			;  по ":", ";" или символам конца строки
   7:			;Вход:		HL - адрес второго символа мнемоники (команды)
   8:			;		A  - первый символ мнемоники (команды)
   9:			;Выход: HL - адрес начала следующей строки / команды
  10:			;
  11:	494D  0608    	ScanCmnd	ld b,8		;max длина мнемоники + 1
  12:	494F  11A869  			ld de,CmndBuf	;рабочий буфер
  13:	4952  05      	SC6		dec b
  14:	4953  2805    			jr z,SC10
  15:	4955  CD4A60  			call Letter	;символ - буква?
  16:	4958  3805    			jr c,SC2
  17:			
  18:	495A  0601    	SC10		ld b,SyntaxEr	;"Синтаксическая ошибка"
  19:	495C  C37360  			jp SkipStrC	;выход в головную программу
  20:			
  21:	495F  E6DF    	SC2		and #df		;перевод символа в CapsLock
  22:	4961  12      			ld (de),a	;символ в буфер
  23:	4962  7E      			ld a,(hl)	;следующий символ
  24:	4963  23      			inc hl
  25:	4964  13      			inc de
  26:	4965  FE09    			cp #09		;табуляция
  27:	4967  2810    			jr z,SC5	;поиск операндов
  28:	4969  FE20    			cp #20		;пробел
  29:	496B  280C    			jr z,SC5	;поиск операндов
  30:	496D  FE3B    			cp ";"		;конец команды
  31:	496F  2808    			jr z,SC5
  32:	4971  FE3A    			cp ":"		;конец команды
  33:	4973  2804    			jr z,SC5
  34:	4975  FE0D    			cp #0d		;конец строки
  35:	4977  20D9    			jr nz,SC6
  36:			
  37:	4979  47      	SC5		ld b,a
  38:	497A  AF      			xor a
  39:	497B  12      			ld (de),a	;0 в конец мнемоники
  40:	497C  D9      			exx
  41:	497D  CD514A  	SC7		call CmndDetect ;определение кода мнемоники
  42:	4980  D5      			push de
  43:	4981  D9      			exx
  44:	4982  D1      			pop de		;адрес служебного байта
  45:	4983  78      			ld a,b		;послений символ в A для правильной обр.ошибок
  46:	4984  FA5A49  			jp m,SC10
  47:	4987  1A      			ld a,(de)	;служебный байт
  48:			;		 ld (MnemByte),a
  49:	4988  13      			inc de
  50:	4989  D5      			push de		;obj код команд без операндов,
  51:							;или адрес п/п обработки мнемоники с операнд.
  52:	498A  CB7F    			bit 7,a
  53:	498C  C2B349  			jp nz,SC12	;команда должна иметь операнды
  54:	498F  D9      	SC16		exx		;новое значение программного счетчика
  55:	4990  47      			ld b,a		;длина команды в байтах
  56:	4991  D1      	SC4		pop de
  57:	4992  CDED49  			call ObjCopy
  58:			
  59:			;		 ld a,b
  60:			;		 or a
  61:			;		 jr z,SC13
  62:			;		 ld hl,(PCAddres)
  63:			;		 ld a,(Pass)	 ;номер прохода
  64:			;		 or a
  65:			;		 jr z,SC1
  66:			
  67:			;		 push hl	 ;сохранили значение PCAddres
  68:			;		 push bc	 ;и длину кода (в рег.B)
  69:			
  70:			;		 in a,(#c2)	 ;номер страницы вкл. во 2-е окно
  71:			;		 push af
  72:			;		 in a,(#e2)	 ;номер страницы вкл. в 3-е окно
  73:			;		 push af
  74:			;		 push de
  75:			;		 ld e,b
  76:			;		 ld d,0
  77:			;		 push de
  78:			;		 ld hl,(MemID)
  79:			;		 inc hl
  80:			;		 inc hl		 ;к id блока obj кода
  81:			;		 ld a,(hl)
  82:			;		 inc hl
  83:			;		 ld b,(hl)	 ;кол-во выделенных страниц
  84:			;		 dec b		 ;номер последней логической страницы
  85:			;		 ld c,a
  86:			;		 push hl
  87:			;		 push bc
  88:			;		 push de
  89:			;		 ld c,EMM_Fn4
  90:			;		 call BIOS	 ;вычисление физического номера страницы
  91:			;		 out (#c2),a	 ;вкл. ее во 2-е окно
  92:			;		 pop de		 ;длина obj кода
  93:			;		 ld hl,(SaveObjAdr)
  94:			;		 add hl,de
  95:			;;		  ld (SaveObjAdr),hl
  96:			;		 ld a,h
  97:			;		 pop bc
  98:			;		 pop hl
  99:			;		 cp #c0		 ;проверка, хватит ли страницы на запись кода
 100:			;		 jr c,SC20
 101:			
 102:			;;		  sub #40	  ;корр. старший адрес записи кода в память
 103:			;;		  ld (SaveObjAdr+1),a
 104:			;		 inc b		 ;увеличить размер блока под obj код
 105:			;		 push bc
 106:			;		 inc b
 107:			;		 ld (hl),b	 ;сохраняем новый размер блока
 108:			;		 ld a,c
 109:			;		 ld c,SetMem
 110:			;		 call DSS	 ;изменить размер блока
 111:			;		 pop bc		 ;b - лог.ном. новой страницы, c - id блока
 112:			;		 ld a,c
 113:			;		 ld c,EMM_Fn4
 114:			;		 call BIOS	 ;вычисление физического номера страницы
 115:			;		 out (#e2),a	 ;вкл. ее в 3-е окно
 116:			
 117:			;SC20		 pop bc		 ;длина obj кода
 118:			;		 pop hl		 ;откуда переносить
 119:			;		 ld de,(SaveObjAdr)
 120:			;		 ldir		 ;генерация кода на втором проходе
 121:			;		 ld (SaveObjAdr),de
 122:			;		 ld a,d
 123:			;		 cp #c0
 124:			;		 jr c,SC21
 125:			;		 sub #40	 ;корр. старший адрес записи кода в память
 126:			;		 ld (SaveObjAdr+1),a
 127:					
 128:			;SC21		 pop af
 129:			;		 out (#e2),a	 ;востановили банку в 3-eм окне
 130:			;		 pop af
 131:			;		 out (#c2),a	 ;востановили банку во 2-ом окне
 132:			
 133:			;		 pop bc
 134:			;		 pop hl
 135:			
 136:			;SC1		 ld e,b		 ;расчет нового значения PC
 137:			;		 ld d,0
 138:			;		 add hl,de	 ;новое значение PC
 139:			
 140:			;SC3		 ld (PCAddres),hl
 141:	4995  D9      	SC13		exx
 142:	4996  78      			ld a,b		;следующий за командой символ
 143:	4997  FE20    			cp #20
 144:	4999  CC6860  			call z,SkipSpace
 145:	499C  FE09    			cp #09
 146:	499E  CC6860  			call z,SkipSpace
 147:	49A1  FE3A    			cp ":"
 148:	49A3  C8      			ret z
 149:			;		 jp z,NextMnem
 150:	49A4  FE0D    			cp #0d
 151:			;		 ret z
 152:	49A6  CA7660  			jp z,SkipStr
 153:	49A9  FE3B    			cp ";"
 154:			;		 ret z
 155:	49AB  CA7660  			jp z,SkipStr
 156:	49AE  0601    			ld b,SyntaxEr	;"Синтаксическая ошибка"
 157:	49B0  C37360  			jp SkipStrC	;выход в головную программу
 158:			
 159:	49B3  CB47    	SC12		bit 0,a
 160:	49B5  201A    			jr nz,SC14	 
 161:			
 162:	49B7  78      			ld a,b		 ;мнемоника, ищем операнды
 163:	49B8  CDEC56  			call OperDetect
 164:			;		 ret c		 ;ошибка в операндах
 165:			;
 166:			;Производим переход на обработку соответствующей мнемоники с операндами
 167:			;
 168:	49BB  47      			ld b,a		;следующий символ в строке
 169:	49BC  D9      			exx
 170:	49BD  E1      			pop hl		;(адрес) п/п обработки мнемоники с операнд.
 171:	49BE  11AE6B  			ld de,DataBuf
 172:	49C1  D5      			push  de	;адрес размещения строки с кодом
 173:	49C2  019149  			ld bc,SC4
 174:	49C5  C5      			push bc		;адрес возврата из процедур
 175:	49C6  4E      			ld c,(hl)
 176:	49C7  23      			inc hl
 177:	49C8  46      			ld b,(hl)
 178:	49C9  C5      			push bc		;адрес п/п анализа команды с операндами
 179:	49CA  2A8B69  			ld hl,(Operand1);L - Operand1, H - Operand2
 180:	49CD  010001  			ld bc,#0100
 181:	49D0  C9      			ret		;переход на анализ команды с операндами
 182:			
 183:	49D1  D9      	SC14		exx
 184:	49D2  E1      			pop hl		;(адрес) п/п обработки оператора
 185:	49D3  11AE6B  			ld de,DataBuf
 186:	49D6  D5      			push  de	;адрес размещения строки с кодом
 187:	49D7  01E749  			ld bc,SC15
 188:	49DA  C5      			push bc		;адрес возврата из процедур
 189:	49DB  4E      			ld c,(hl)
 190:	49DC  23      			inc hl
 191:	49DD  46      			ld b,(hl)
 192:	49DE  C5      			push bc		;адрес п/п анализа оператора
 193:	49DF  D9      			exx 
 194:	49E0  78      			ld a,b
 195:	49E1  0600    			ld b,#00
 196:	49E3  11AE6B  			ld de,DataBuf	;начало буфера
 197:			;		 ld hl,(Operand1);L - Operand1, H - Operand2
 198:			;		 ld bc,#0100
 199:	49E6  C9      			ret		;переход на анализ команды с операндами
 200:	49E7  4F      	SC15		ld c,a
 201:	49E8  78      			ld a,b
 202:	49E9  41      			ld b,c
 203:	49EA  C38F49  			jp SC16
 204:			;
 205:			;-- Запись буфера с кодом в память --
 206:			;Вход: B - длина кода
 207:			;DE - начало буфера
 208:	49ED          	ObjCopy
 209:	49ED  78      			ld a,b
 210:	49EE  B7      			or a
 211:	49EF  C8      			ret z
 212:			;		 jr z,SC13
 213:	49F0  2A9F69  			ld hl,(PCAddres)
 214:	49F3  3A6A69  			ld a,(Pass)	;номер прохода
 215:	49F6  B7      			or a
 216:	49F7  2850    			jr z,OC2
 217:			
 218:	49F9  E5      	ObjCopy2	push hl		;сохранили значение PCAddres
 219:	49FA  C5      			push bc		;и длину кода (в рег.B)
 220:			
 221:	49FB  DBC2    			in a,(Page2)	;физ.номер банки вкл. во 2-е окно
 222:	49FD  F5      			push af
 223:	49FE  DBE2    			in a,(Page3)	;физ.номер банки вкл. в 3-е окно
 224:	4A00  F5      			push af
 225:			
 226:	4A01  D5      			push de		;начало буфера
 227:			
 228:	4A02  58      			ld e,b
 229:	4A03  1600    			ld d,0
 230:	4A05  D5      			push de		;длина кода
 231:	4A06  D5      			push de
 232:	4A07  ED4B6D69			ld bc,(OutFileID)
 233:	4A0B  C5      			push bc
 234:	4A0C  05      			dec b		;номер последней логической страницы
 235:	4A0D  79      			ld a,c		;ID блока памяти
 236:	4A0E  0E3A    			ld c,SetWin2
 237:	4A10  D7      			rst #10		;включить во 2-е окно
 238:	4A11  DA5948  			jp c,Error	;выход, если произошла ошибка
 239:	4A14  C1      			pop bc
 240:	4A15  D1      			pop de		;длина obj кода
 241:	4A16  2A7F69  			ld hl,(SaveObjAdr)
 242:	4A19  19      			add hl,de
 243:			
 244:	4A1A  CB74    			bit 6,h		;проверка, хватит ли страницы на запись кода
 245:	4A1C  2815    			jr z,OC1
 246:			
 247:	4A1E  C5      			push bc
 248:	4A1F  04      			inc b
 249:	4A20  ED436D69			ld (OutFileID),bc;сохраняем новый размер блока
 250:	4A24  79      			ld a,c
 251:	4A25  0E3F    			ld c,SetMem
 252:	4A27  D7      			rst #10		;изменить размер блока
 253:	4A28  DA5948  			jp c,Error
 254:	4A2B  C1      			pop bc		;b - лог.ном. новой страницы, c - id блока
 255:	4A2C  79      			ld a,c
 256:	4A2D  0E3B    			ld c,SetWin3
 257:	4A2F  D7      			rst #10		;включить в 3-е окно
 258:	4A30  DA5948  			jp c,Error	;выход, если произошла ошибка
 259:			
 260:	4A33  C1      	OC1		pop bc		;длина obj кода
 261:	4A34  E1      			pop hl		;откуда переносить
 262:	4A35  ED5B7F69			ld de,(SaveObjAdr)
 263:	4A39  EDB0    			ldir		;генерация кода на втором проходе
 264:			
 265:	4A3B  CBB2    			res 6,d
 266:	4A3D  ED537F69			ld (SaveObjAdr),de
 267:			
 268:	4A41  F1      			pop af
 269:	4A42  D3E2    			out (Page3),a	;востановили банку в 3-eм окне
 270:	4A44  F1      			pop af
 271:	4A45  D3C2    			out (Page2),a	;востановили банку во 2-ом окне
 272:			
 273:	4A47  C1      			pop bc
 274:	4A48  E1      			pop hl
 275:			
 276:	4A49  58      	OC2		ld e,b		;расчет нового значения PC
 277:	4A4A  1600    			ld d,0
 278:	4A4C  19      			add hl,de	;новое значение PC
 279:			
 280:	4A4D  229F69  			ld (PCAddres),hl
 281:	4A50  C9      			ret
 282:			;
 283:			;-- Поиск команды в таблице --
 284:			;Имя команды должно быть в буфере CmndBuf
 285:			;Таблица команд	 начинается с адреса TabCmnd
 286:			;результат:
 287:			; "M" - не найдена
 288:			; "P" - найдена,    HL - адрес команды в таблице
 289:			;		    DE - адрес служебного байта команды
 290:			;
 291:	4A51  217C4A  	CmndDetect	ld hl,TabCmnd	;адрес начала таблицы команд
 292:	4A54  7E      	CD1		ld a,(hl)
 293:	4A55  3D      			dec a		;конец таблицы?
 294:	4A56  F8      			ret m
 295:	4A57  E5      			push hl
 296:	4A58  47      			ld b,a
 297:	4A59  04      			inc b		;длина записи в таблице команд
 298:	4A5A  D603    			sub 3		;длина команды
 299:	4A5C  4F      			ld c,a
 300:	4A5D  23      			inc hl
 301:	4A5E  11A869  			ld de,CmndBuf
 302:	4A61  C5      	CD2		push bc
 303:	4A62  1A      			ld a,(de)
 304:	4A63  46      			ld b,(hl)	;символ команды
 305:	4A64  B8      			cp b
 306:	4A65  C1      			pop bc
 307:	4A66  2808    			jr z,CD3
 308:	4A68  E1      			pop hl
 309:	4A69  F8      			ret m
 310:	4A6A  48      	CD4		ld c,b
 311:	4A6B  0600    			ld b,0		;в BC длина записи в таблице
 312:	4A6D  09      			add hl,bc	;к следующей команде
 313:	4A6E  18E4    			jr CD1
 314:	4A70  13      	CD3		inc de
 315:	4A71  23      			inc hl
 316:	4A72  0D      			dec c
 317:	4A73  20EC    			jr nz,CD2	;все символы команды из таблицы?
 318:	4A75  1A      			ld a,(de)	;следующий символ из буфера команды
 319:	4A76  EB      			ex de,hl
 320:	4A77  E1      			pop hl
 321:	4A78  B7      			or a		;конец команды в буфере?
 322:	4A79  20EF    			jr nz,CD4	;продолжаем поиск
 323:	4A7B  C9      			ret		;команда найдена
 324:			;
 325:			;-- Основная таблица команд --
 326:			;
 327:			;Формат таблицы:
 328:			;---------------
 329:			;длина записи -	 1 байт
 330:			;мнемоника или команда - 2-?? байта
 331:			;длина команды в байтах	 (1 или 2) - 1 байт (для мнемоник без операндов)
 332:			;    #80 - для команд с	 операндами
 333:			;    для команд	 компиляции этот байт равен 0???
 334:			;адрес обработки однотипных команд - 2 байта (для группы мнемоник)
 335:			;    код мнемоники (мл., ст.) -	 2 байта (для одиночных мнемоник)
 336:			;конец таблицы - байт #00
 337:	4A7C  07414443	TabCmnd		db 7,"ADC",#80
	      80
 338:	4A81  AA4D    			dw _adc
 339:	4A83  07414444			db 7,"ADD",#80
	      80
 340:	4A88  6D4D    			dw _add
 341:	4A8A  07414E44			db 7,"AND",#80
	      80
 342:	4A8F  684D    			dw _and
 343:	4A91  07424954			db 7,"BIT",#80
	      80
 344:	4A96  534E    			dw _bit
 345:	4A98  0843414C			db 8,"CALL",#80
	      4C80
 346:	4A9E  ED4E    			dw _call
 347:	4AA0  07434346			db 7,"CCF",1
	      01
 348:	4AA5  3F00    			db #3f,#00
 349:	4AA7  06435080			db 6,"CP",#80
 350:	4AAB  634D    			dw _cp
 351:	4AAD  07435044			db 7,"CPD",2
	      02
 352:	4AB2  EDA9    			db #ed,#a9
 353:	4AB4  08435044			db 8,"CPDR",2
	      5202
 354:	4ABA  EDB9    			db #ed,#b9
 355:	4ABC  07435049			db 7,"CPI",2
	      02
 356:	4AC1  EDA1    			db #ed,#a1
 357:	4AC3  08435049			db 8,"CPIR",2
	      5202
 358:	4AC9  EDB1    			db #ed,#b1
 359:	4ACB  0743504C			db 7,"CPL",1
	      01
 360:	4AD0  2F00    			db #2f,#00
 361:	4AD2  07444141			db 7,"DAA",1
	      01
 362:	4AD7  2700    			db #27,#00
 363:	4AD9  06444281			db 6,"DB",#81
 364:	4ADD  7954    			dw _db
 365:	4ADF  07444543			db 7,"DEC",#80
	      80
 366:	4AE4  7E4F    			dw _dec
 367:	4AE6  08444546			db 8,"DEFB",#81
	      4281
 368:	4AEC  7954    			dw _db
 369:	4AEE  08444546			db 8,"DEFS",#81
	      5381
 370:	4AF4  2E55    			dw _ds
 371:	4AF6  08444546			db 8,"DEFW",#81
	      5781
 372:	4AFC  F054    			dw _dw
 373:	4AFE  0B444550			db 11,"DEPHASE",#81
	      48415345
	      81
 374:	4B07  5454    			dw _dephase
 375:	4B09  06444901			db 6,"DI",1
 376:	4B0D  F300    			db #f3,#00
 377:	4B0F  08444A4E			db 8,"DJNZ",#80
	      5A80
 378:	4B15  114D    			dw _djnz
 379:	4B17  06445381			db 6,"DS",#81
 380:	4B1B  2E55    			dw _ds
 381:	4B1D  06445781			db 6,"DW",#81
 382:	4B21  F054    			dw _dw
 383:	4B23  06454901			db 6,"EI",1
 384:	4B27  FB00    			db #fb,#00
 385:	4B29  09454E54			db 9,"ENTRY",#81	; добавлено в v0.2X
	      525981
 386:	4B30  1A54    			dw _entry		; добавлено в v0.2X
 387:	4B32  06455880			db 6,"EX",#80
 388:	4B36  314F    			dw _ex
 389:	4B38  07455841			db 7,"EXA",1
	      01
 390:	4B3D  0800    			db #08,#00
 391:	4B3F  07455858			db 7,"EXX",1
	      01
 392:	4B44  D900    			db #d9,#00
 393:	4B46  0848414C			db 8,"HALT",1
	      5401
 394:	4B4C  7600    			db #76,#00
 395:	4B4E  06494D80			db 6,"IM",#80
 396:	4B52  ED4F    			dw _im
 397:	4B54  06494E80			db 6,"IN",#80
 398:	4B58  5050    			dw _in
 399:	4B5A  07494E43			db 7,"INC",#80
	      80
 400:	4B5F  724F    			dw _inc
 401:	4B61  0A494E43			db 10,"INCBIN",#81	; добавлено в v0.2X
	      42494E81
 402:	4B69  AD55    			dw _incbin		; добавлено в v0.2X
 403:	4B6B  0B494E43			db 11,"INCLUDE",#81
	      4C554445
	      81
 404:	4B74  6D55    			dw _include
 405:	4B76  07494E44			db 7,"IND",2
	      02
 406:	4B7B  EDAA    			db #ed,#aa
 407:	4B7D  08494E44			db 8,"INDR",2
	      5202
 408:	4B83  EDBA    			db #ed,#ba
 409:	4B85  07494E46			db 7,"INF",2
	      02
 410:	4B8A  ED70    			db #ed,#70
 411:	4B8C  07494E49			db 7,"INI",2
	      02
 412:	4B91  EDA2    			db #ed,#a2
 413:	4B93  08494E49			db 8,"INIR",2
	      5202
 414:	4B99  EDB2    			db #ed,#b2
 415:	4B9B  064A5080			db 6,"JP",#80
 416:	4B9F  CA4E    			dw _jp
 417:	4BA1  064A5280			db 6,"JR",#80
 418:	4BA5  E04C    			dw _jr
 419:	4BA7  064C4480			db 6,"LD",#80
 420:	4BAB  B450    			dw _ld
 421:	4BAD  074C4444			db 7,"LDD",2
	      02
 422:	4BB2  EDA8    			db #ed,#a8
 423:	4BB4  084C4444			db 8,"LDDR",2
	      5202
 424:	4BBA  EDB8    			db #ed,#b8
 425:	4BBC  074C4449			db 7,"LDI",2
	      02
 426:	4BC1  EDA0    			db #ed,#a0
 427:	4BC3  084C4449			db 8,"LDIR",2
	      5202
 428:	4BC9  EDB0    			db #ed,#b0
 429:	4BCB  074E4547			db 7,"NEG",2
	      02
 430:	4BD0  ED44    			db #ed,#44
 431:	4BD2  074E4F50			db 7,"NOP",1
	      01
 432:	4BD7  0000    			db #00,#00
 433:	4BD9  064F5280			db 6,"OR",#80
 434:	4BDD  5E4D    			dw _or
 435:	4BDF  074F5247			db 7,"ORG",#81
	      81
 436:	4BE4  EB53    			dw _org
 437:	4BE6  084F5444			db 8,"OTDR",2
	      5202
 438:	4BEC  EDBB    			db #ed,#bb
 439:	4BEE  084F5449			db 8,"OTIR",2
	      5202
 440:	4BF4  EDB3    			db #ed,#b3
 441:	4BF6  074F5554			db 7,"OUT",#80
	      80
 442:	4BFB  3650    			dw _out
 443:	4BFD  084F5554			db 8,"OUTD",2
	      4402
 444:	4C03  EDAB    			db #ed,#ab
 445:	4C05  084F5554			db 8,"OUTI",2
	      4902
 446:	4C0B  EDA3    			db #ed,#a3
 447:	4C0D  09504841			db 9,"PHASE",#81
	      534581
 448:	4C14  2E54    			dw _phase
 449:	4C16  07504F50			db 7,"POP",#80
	      80
 450:	4C1B  8750    			dw _pop
 451:	4C1D  08505553			db 8,"PUSH",#80
	      4880
 452:	4C23  8350    			dw _push
 453:	4C25  07524553			db 7,"RES",#80
	      80
 454:	4C2A  4F4E    			dw _res
 455:	4C2C  07524554			db 7,"RET",#80
	      80
 456:	4C31  B74E    			dw _ret
 457:	4C33  08524554			db 8,"RETI",2
	      4902
 458:	4C39  ED4D    			db #ed,#4d
 459:	4C3B  08524554			db 8,"RETN",2
	      4E02
 460:	4C41  ED45    			db #ed,#45
 461:	4C43  06524C80			db 6,"RL",#80
 462:	4C47  2B4E    			dw _rl
 463:	4C49  07524C41			db 7,"RLA",1
	      01
 464:	4C4E  1700    			db #17,#00
 465:	4C50  07524C43			db 7,"RLC",#80
	      80
 466:	4C55  2F4E    			dw _rlc
 467:	4C57  08524C43			db 8,"RLCA",1
	      4101
 468:	4C5D  0700    			db #07,#00
 469:	4C5F  07524C44			db 7,"RLD",2
	      02
 470:	4C64  ED6F    			db #ed,#6f
 471:	4C66  06525280			db 6,"RR",#80
 472:	4C6A  334E    			dw _rr
 473:	4C6C  07525241			db 7,"RRA",1
	      01
 474:	4C71  1F00    			db #1f,#00
 475:	4C73  07525243			db 7,"RRC",#80
	      80
 476:	4C78  374E    			dw _rrc
 477:	4C7A  08525243			db 8,"RRCA",1
	      4101
 478:	4C80  0F00    			db #0f,#00
 479:	4C82  07525244			db 7,"RRD",2
	      02
 480:	4C87  ED67    			db #ed,#67
 481:	4C89  07525354			db 7,"RST",#80
	      80
 482:	4C8E  0F50    			dw _rst
 483:	4C90  07534243			db 7,"SBC",#80
	      80
 484:	4C95  4C4D    			dw _sbc
 485:	4C97  07534346			db 7,"SCF",1
	      01
 486:	4C9C  3700    			db #37,#00
 487:	4C9E  07534554			db 7,"SET",#80
	      80
 488:	4CA3  4B4E    			dw _set
 489:	4CA5  07534C41			db 7,"SLA",#80
	      80
 490:	4CAA  3B4E    			dw _sla
 491:	4CAC  07534C49			db 7,"SLI",#80
	      80
 492:	4CB1  3F4E    			dw _sll
 493:	4CB3  07534C4C			db 7,"SLL",#80
	      80
 494:	4CB8  3F4E    			dw _sll
 495:	4CBA  07535241			db 7,"SRA",#80
	      80
 496:	4CBF  434E    			dw _sra
 497:	4CC1  0753524C			db 7,"SRL",#80
	      80
 498:	4CC6  474E    			dw _srl
 499:	4CC8  09535441			db 9,"STACK",#81	; добавлено в v0.2X
	      434B81
 500:	4CCF  2454    			dw _stack		; добавлено в v0.2X
 501:	4CD1  07535542			db 7,"SUB",#80
	      80
 502:	4CD6  474D    			dw _sub
 503:	4CD8  07584F52			db 7,"XOR",#80
	      80
 504:	4CDD  424D    			dw _xor
 505:	4CDF  00      			db #00
**** orgasm.asm ****
1288:			                include "d_mnem.asm"
**** d_mnem.asm ****
   1:			;-----------------------------------------------------------------------------
   2:			;--			     Разбор мнемоник Z80			    --
   3:			;-----------------------------------------------------------------------------
   4:			;
   5:			;JR ...
   6:	4CE0  24      	_jr		inc h
   7:	4CE1  280C    			jr z,_jr1	;2-ой операнд выражение
   8:	4CE3  25      			dec h
   9:	4CE4  C28553  			jp nz,CmndError
  10:	4CE7  2C      			inc l
  11:	4CE8  C28553  			jp nz,CmndError
  12:	4CEB  3E18    			ld a,#18	;JR NN
  13:	4CED  1819    			jr _jr2+1
  14:			
  15:	4CEF  7D      	_jr1		ld a,l
  16:	4CF0  21E753  			ld hl,Tbl_jr
  17:	4CF3  FE03    			cp #03		;JR C,NN
  18:	4CF5  2810    			jr z,_jr2
  19:	4CF7  23      			inc hl
  20:	4CF8  FE0C    			cp #0c		;JR Z,NN
  21:	4CFA  280B    			jr z,_jr2
  22:	4CFC  23      			inc hl
  23:	4CFD  FE14    			cp #14		;JR NZ,NN
  24:	4CFF  2806    			jr z,_jr2
  25:	4D01  23      			inc hl
  26:	4D02  FE16    			cp #16		;JR NC,NN
  27:	4D04  C28553  			jp nz,CmndError
  28:			
  29:	4D07  7E      	_jr2		ld a,(hl)	;код команды
  30:	4D08  12      			ld (de),a
  31:	4D09  CD1E4D  			call _jrdjnz
  32:	4D0C  13      			inc de
  33:	4D0D  0602    			ld b,#02	;длина obj-кода команды
  34:	4D0F  12      			ld (de),a
  35:	4D10  C9      			ret
  36:			;DJNZ ...
  37:	4D11  24      	_djnz		inc h		;2-ой операнд <>0   - ошибка
  38:	4D12  25      			dec h
  39:	4D13  C28553  			jp nz,CmndError
  40:	4D16  2C      			inc l		;1-ый операнд - выражение?
  41:	4D17  C28553  			jp nz,CmndError
  42:	4D1A  3E10    			ld a,#10	;код команды DJNZ
  43:	4D1C  18EA    			jr _jr2+1
  44:					   
  45:	4D1E  2A8D69  	_jrdjnz		ld hl,(Var1)	;значение переменной
  46:	4D21  ED4B9F69			ld bc,(PCAddres);текущее значение счетчика
  47:	4D25  03      			inc bc
  48:	4D26  03      			inc bc
  49:	4D27  B7      			or a
  50:	4D28  ED42    			sbc hl,bc
  51:	4D2A  7C      			ld a,h
  52:	4D2B  B7      			or a
  53:	4D2C  2006    			jr nz,JumpDown	;отрицательное число?
  54:	4D2E  7D      			ld a,l
  55:	4D2F  FE80    			cp #80		;0...#7f
  56:	4D31  3008    			jr nc,JumpError
  57:	4D33  C9      			ret
  58:	4D34  3C      	JumpDown	inc a
  59:	4D35  2004    			jr nz,JumpError
  60:	4D37  7D      			ld a,l
  61:	4D38  FE80    			cp #80		;#80...#ff
  62:	4D3A  D0      			ret nc
  63:			
  64:	4D3B  D9      	JumpError	exx
  65:	4D3C  78      			ld a,b		;следующий символ в строке
  66:	4D3D  0605    			ld b,JumpEr	;"Слишком длинный относительный переход"
  67:	4D3F  C37360  			jp SkipStrC
  68:			
  69:			;XOR ...
  70:	4D42  0EA8    	_xor		ld c,#a8	;коррекция кода
  71:	4D44  C3D94D  			jp Logic
  72:			;SUB ...
  73:	4D47  0E90    	_sub		ld c,#90	;коррекция кода
  74:	4D49  C3D94D  			jp Logic
  75:			;SBC ...
  76:	4D4C  7D      	_sbc		ld a,l
  77:	4D4D  0E98    			ld c,#98	;коррекция кода
  78:	4D4F  FE01    			cp #01		;рег A
  79:	4D51  CADF4D  			jp z,_adc1
  80:	4D54  0E42    			ld c,#42	;коррекция кода
  81:	4D56  FE11    			cp #11		;рег HL
  82:	4D58  CAB84D  			jp z,_adc5
  83:	4D5B  C38553  			jp CmndError
  84:			;OR ...
  85:	4D5E  0EB0    	_or		ld c,#b0	;коррекция кода
  86:	4D60  C3D94D  			jp Logic
  87:			;CP ...
  88:	4D63  0EB8    	_cp		ld c,#b8	;коррекция кода
  89:	4D65  C3D94D  			jp Logic
  90:			;AND ...
  91:	4D68  0EA0    	_and		ld c,#a0	;коррекция кода
  92:	4D6A  C3D94D  			jp Logic
  93:			;ADD ...
  94:	4D6D  7D      	_add		ld a,l
  95:	4D6E  0E80    			ld c,#80	;коррекция кода
  96:	4D70  FE01    			cp #01		;рег A
  97:	4D72  286B    			jr z,_adc1
  98:	4D74  0E09    			ld c,#09	;коррекция кода
  99:	4D76  E5      			push hl
 100:	4D77  212553  			ld hl,OneCode
 101:	4D7A  22D74D  			ld (_adc3+1),hl
 102:	4D7D  E1      			pop hl
 103:	4D7E  FE11    			cp #11		;ADD HL,..
 104:	4D80  283E    			jr z,_adc4
 105:	4D82  FE17    			cp #17		;ADD IX,..
 106:	4D84  280F    			jr z,_add1
 107:	4D86  FE1A    			cp #1a		;ADD IY,..
 108:	4D88  C28553  			jp nz,CmndError
 109:	4D8B  E5      			push hl
 110:	4D8C  212053  			ld hl,PrFD_OneCode
 111:	4D8F  22D74D  			ld (_adc3+1),hl
 112:	4D92  E1      			pop hl
 113:	4D93  1808    			jr _add2
 114:	4D95  E5      	_add1		push hl
 115:	4D96  211C53  			ld hl,PrDD_OneCode
 116:	4D99  22D74D  			ld (_adc3+1),hl
 117:	4D9C  E1      			pop hl
 118:	4D9D  7C      	_add2		ld a,h
 119:	4D9E  FE11    			cp #11		;ADD IX/IY,HL
 120:	4DA0  CA8553  			jp z,CmndError
 121:	4DA3  BD      			cp l		;ADD IX/IY,IX/IY
 122:	4DA4  201A    			jr nz,_adc4
 123:	4DA6  2611    			ld h,#11
 124:	4DA8  1816    			jr _adc4
 125:			;ADC ...
 126:	4DAA  7D      	_adc		ld a,l
 127:	4DAB  0E88    			ld c,#88	;коррекция кода
 128:	4DAD  FE01    			cp #01		;ADC A,..
 129:	4DAF  282E    			jr z,_adc1
 130:	4DB1  0E4A    			ld c,#4a	;коррекция кода
 131:	4DB3  FE11    			cp #11		;ADC HL,..
 132:	4DB5  C28553  			jp nz,CmndError
 133:			
 134:	4DB8  E5      	_adc5		push hl
 135:	4DB9  211853  			ld hl,PrED_OneCode
 136:	4DBC  22D74D  			ld (_adc3+1),hl
 137:	4DBF  E1      			pop hl
 138:	4DC0  7C      	_adc4		ld a,h
 139:	4DC1  21E353  			ld hl,Tbl_adc+2
 140:	4DC4  FE0F    			cp #0f		;ADC HL,BC/DE/HL/SP
 141:	4DC6  DA8553  			jp c,CmndError
 142:	4DC9  FE13    			cp #13
 143:	4DCB  D28553  			jp nc,CmndError
 144:	4DCE  D60F    			sub #0f
 145:	4DD0  D5      			push de
 146:	4DD1  1600    			ld d,0
 147:	4DD3  5F      			ld e,a
 148:	4DD4  19      			add hl,de
 149:	4DD5  D1      			pop de
 150:	4DD6  C31853  	_adc3		jp PrED_OneCode
 151:			
 152:	4DD9  7C      	Logic		ld a,h
 153:	4DDA  B7      			or a
 154:	4DDB  C28553  			jp nz,CmndError
 155:	4DDE  65      			ld h,l
 156:	4DDF  7C      	_adc1		ld a,h		;проверка 2-го операнда
 157:	4DE0  B7      			or a
 158:	4DE1  CA8553  			jp z,CmndError
 159:	4DE4  21D953  			ld hl,Tbl_bit
 160:	4DE7  FE08    			cp #08		;ADC A,A/B/C/D/E/H/L
 161:	4DE9  3009    			jr nc,_adc2
 162:	4DEB  D5      			push de
 163:	4DEC  1600    			ld d,0
 164:	4DEE  5F      			ld e,a
 165:	4DEF  19      			add hl,de
 166:	4DF0  D1      			pop de
 167:	4DF1  C32553  			jp OneCode
 168:			
 169:	4DF4  21DF53  	_adc2		ld hl,Tbl_bit+6
 170:	4DF7  FE18    			cp #18		;ADC A,HX
 171:	4DF9  CA1C53  			jp z,PrDD_OneCode
 172:	4DFC  FE1B    			cp #1b		;ADC A,HY
 173:	4DFE  CA2053  			jp z,PrFD_OneCode
 174:	4E01  23      			inc hl
 175:	4E02  FE19    			cp #19		;ADC A,LX
 176:	4E04  CA1C53  			jp z,PrDD_OneCode
 177:	4E07  FE1C    			cp #1c		;ADC A,LY
 178:	4E09  CA2053  			jp z,PrFD_OneCode
 179:	4E0C  23      			inc hl
 180:	4E0D  D620    			sub #20		;ADC A,(HL)
 181:	4E0F  CA2553  			jp z,OneCode
 182:	4E12  3D      			dec a		;ADC A,(IX)
 183:	4E13  CA3C53  			jp z,PrDD_RegS
 184:	4E16  3D      			dec a		;ADC A,(IX+N)
 185:	4E17  CA3C53  			jp z,PrDD_RegS
 186:	4E1A  3D      			dec a		;ADC A,(IY)
 187:	4E1B  CA4053  			jp z,PrFD_RegS
 188:	4E1E  3D      			dec a		;ADC A,(IY+N)
 189:	4E1F  CA4053  			jp z,PrFD_RegS
 190:	4E22  23      			inc hl
 191:	4E23  FEDB    			cp #ff-#24	;ADC A,N
 192:	4E25  CA3253  			jp z,RegN
 193:	4E28  C38553  			jp CmndError
 194:			;RL ...
 195:	4E2B  0E10    	_rl		ld c,#10	;коррекция кода
 196:	4E2D  183C    			jr Rotation
 197:			;RLC ...
 198:	4E2F  0E00    	_rlc		ld c,#00	;коррекция кода
 199:	4E31  1838    			jr Rotation
 200:			;RR ...
 201:	4E33  0E18    	_rr		ld c,#18	;коррекция кода
 202:	4E35  1834    			jr Rotation
 203:			;RRC ...
 204:	4E37  0E08    	_rrc		ld c,#08	;коррекция кода
 205:	4E39  1830    			jr Rotation
 206:			;SLA ...
 207:	4E3B  0E20    	_sla		ld c,#20	;коррекция кода
 208:	4E3D  182C    			jr Rotation
 209:			;SLL ...
 210:	4E3F  0E30    	_sll		ld c,#30	;коррекция кода
 211:	4E41  1828    			jr Rotation
 212:			;SRA ...
 213:	4E43  0E28    	_sra		ld c,#28	;коррекция кода
 214:	4E45  1824    			jr Rotation
 215:			;SRL ...
 216:	4E47  0E38    	_srl		ld c,#38	;коррекция кода
 217:	4E49  1820    			jr Rotation
 218:			;SET ...
 219:	4E4B  0EB8    	_set		ld c,#c0-#08	;корректировка кода
 220:	4E4D  1806    			jr BitResSet
 221:			;RES ...
 222:	4E4F  0E78    	_res		ld c,#80-#08	;корректировка кода
 223:	4E51  1802    			jr BitResSet
 224:			;BIT ...
 225:	4E53  0E38    	_bit		ld c,#40-#08	;корректировка кода
 226:	4E55  7D      	BitResSet	ld a,l
 227:	4E56  3C      			inc a
 228:	4E57  C28553  			jp nz,CmndError ;ошибка, если не выражение
 229:	4E5A  3A8D69  			ld a,(Var1)
 230:	4E5D  E607    			and #07		;обнуляем старшие 5 битов
 231:	4E5F  6F      			ld l,a
 232:	4E60  2C      			inc l
 233:	4E61  AF      			xor a
 234:	4E62  C608    			add a,#08
 235:	4E64  2D      			dec l
 236:	4E65  20FB    			jr nz,$-3
 237:	4E67  81      			add a,c
 238:	4E68  4F      			ld c,a
 239:	4E69  1806    			jr _bit1
 240:			
 241:	4E6B  7C      	Rotation	ld a,h
 242:	4E6C  B7      			or a
 243:	4E6D  C28553  			jp nz,CmndError
 244:	4E70  65      			ld h,l
 245:	4E71  7C      	_bit1		ld a,h
 246:	4E72  B7      			or a
 247:	4E73  CA8553  			jp z,CmndError
 248:	4E76  3ECB    			ld a,#cb	;префикс
 249:	4E78  12      			ld (de),a
 250:	4E79  13      			inc de
 251:	4E7A  04      			inc b
 252:	4E7B  7C      			ld a,h		;проверка 2-го операнда
 253:	4E7C  21D953  			ld hl,Tbl_bit
 254:	4E7F  FE08    			cp #08		;рег A/B/C/D/E/H/L
 255:	4E81  D28D4E  			jp nc,_bit2
 256:	4E84  D5      			push de
 257:	4E85  1600    			ld d,0
 258:	4E87  5F      			ld e,a
 259:	4E88  19      			add hl,de
 260:	4E89  D1      			pop de
 261:	4E8A  C32553  			jp OneCode
 262:			
 263:	4E8D  D620    	_bit2		sub #20		;рег (HL)
 264:	4E8F  CA2553  			jp z,OneCode
 265:	4E92  3D      			dec a		;рег (IX)
 266:	4E93  280E    			jr z,PrDD_Bit
 267:	4E95  3D      			dec a		;рег (IX+N)
 268:	4E96  280B    			jr z,PrDD_Bit
 269:	4E98  3D      			dec a		;рег (IY)
 270:	4E99  2804    			jr z,PrFD_Bit
 271:	4E9B  3D      			dec a		;рег (IY+N)
 272:	4E9C  C28553  			jp nz,CmndError
 273:			
 274:	4E9F  3EFD    	PrFD_Bit	ld a,#fd
 275:	4EA1  1802    			jr $+4
 276:	4EA3  3EDD    	PrDD_Bit	ld a,#dd
 277:	4EA5  1B      			dec de
 278:	4EA6  12      			ld (de),a	;префикс индексных регистров
 279:	4EA7  13      			inc de
 280:	4EA8  04      			inc b
 281:	4EA9  3ECB    			ld a,#cb	;префикс команды
 282:	4EAB  12      			ld (de),a
 283:	4EAC  13      			inc de
 284:	4EAD  3A8F69  			ld a,(Var2)
 285:	4EB0  12      			ld (de),a	;смещение
 286:	4EB1  13      			inc de
 287:	4EB2  04      			inc b
 288:	4EB3  7E      			ld a,(hl)
 289:	4EB4  81      			add a,c
 290:	4EB5  12      			ld (de),a
 291:	4EB6  C9      			ret
 292:			;RET ...
 293:	4EB7  7C      	_ret		ld a,h
 294:	4EB8  B7      			or a
 295:	4EB9  C28553  			jp nz,CmndError
 296:	4EBC  0EC0    			ld c,#c0
 297:	4EBE  7D      			ld a,l
 298:	4EBF  B7      			or a
 299:	4EC0  2804    			jr z,_ret1
 300:	4EC2  05      			dec b
 301:	4EC3  05      			dec b
 302:	4EC4  183B    			jr _call1
 303:	4EC6  3EC9    	_ret1		ld a,#c9	;RET
 304:	4EC8  12      			ld (de),a
 305:	4EC9  C9      			ret
 306:			;JP ...
 307:	4ECA  0EC2    	_jp		ld c,#c2	;коррекция кода
 308:	4ECC  7D      			ld a,l
 309:	4ECD  24      			inc h
 310:	4ECE  2831    			jr z,_call1
 311:	4ED0  25      			dec h
 312:	4ED1  C28553  			jp nz,CmndError
 313:	4ED4  21D753  			ld hl,Tbl_jp
 314:	4ED7  3C      			inc a		;JP NN
 315:	4ED8  CA5C53  			jp z,RegNN
 316:	4EDB  23      			inc hl
 317:	4EDC  D621    			sub #20+#01	;JP (HL)
 318:	4EDE  CA2553  			jp z,OneCode
 319:	4EE1  3D      			dec a		;JP (IX)
 320:	4EE2  CA1C53  			jp z,PrDD_OneCode
 321:	4EE5  D602    			sub #23-#21	;JP (IY)
 322:	4EE7  CA2053  			jp z,PrFD_OneCode
 323:	4EEA  C38553  			jp CmndError
 324:			;CALL ...
 325:	4EED  0EC4    	_call		ld c,#c4	;коррекция кода
 326:	4EEF  7D      			ld a,l
 327:	4EF0  24      			inc h
 328:	4EF1  280E    			jr z,_call1
 329:	4EF3  25      			dec h
 330:	4EF4  C28553  			jp nz,CmndError
 331:	4EF7  21CE53  			ld hl,Tbl_call
 332:	4EFA  3C      			inc a		;CALL NN
 333:	4EFB  CA5C53  			jp z,RegNN
 334:	4EFE  C38553  			jp CmndError
 335:			
 336:	4F01  21CF53  	_call1		ld hl,Tbl_call+1
 337:	4F04  FE03    			cp #03		;CALL C,NN
 338:	4F06  CA5C53  			jp z,RegNN
 339:	4F09  23      			inc hl
 340:	4F0A  D60A    			sub #0a		;CALL M,NN
 341:	4F0C  CA5C53  			jp z,RegNN
 342:	4F0F  23      			inc hl
 343:	4F10  3D      			dec a		;CALL P,NN
 344:	4F11  CA5C53  			jp z,RegNN
 345:	4F14  23      			inc hl
 346:	4F15  3D      			dec a		;CALL Z,NN
 347:	4F16  CA5C53  			jp z,RegNN
 348:	4F19  23      			inc hl
 349:	4F1A  D607    			sub #13-#0c	;CALL PO,NN
 350:	4F1C  CA5C53  			jp z,RegNN
 351:	4F1F  23      			inc hl
 352:	4F20  3D      			dec a		;CALL NZ,NN
 353:	4F21  CA5C53  			jp z,RegNN
 354:	4F24  23      			inc hl
 355:	4F25  3D      			dec a		;CALL PE,NN
 356:	4F26  CA5C53  			jp z,RegNN
 357:	4F29  23      			inc hl
 358:	4F2A  3D      			dec a		;CALL NC,NN
 359:	4F2B  CA5C53  			jp z,RegNN
 360:	4F2E  C38553  			jp CmndError
 361:			;EX ...
 362:	4F31  4C      	_ex		ld c,h
 363:	4F32  7D      			ld a,l
 364:	4F33  21AE53  			ld hl,Tbl_in	;указатель на нулевой байт
 365:	4F36  FE25    			cp #25		;EX (SP),...
 366:	4F38  2823    			jr z,_ex_sp_
 367:	4F3A  FE0D    			cp #0d		;EX AF,...
 368:	4F3C  2810    			jr z,_exaf
 369:	4F3E  FE10    			cp #10		;EX DE,...
 370:	4F40  C28553  			jp nz,CmndError
 371:	4F43  79      			ld a,c
 372:	4F44  0EEB    			ld c,#eb
 373:	4F46  FE11    			cp #11		;EX DE,HL
 374:	4F48  CA2553  			jp z,OneCode
 375:	4F4B  C38553  			jp CmndError
 376:			
 377:	4F4E  79      	_exaf		ld a,c
 378:	4F4F  0E08    			ld c,#08
 379:	4F51  D60D    			sub #0d		;EX AF,AF
 380:	4F53  CA2553  			jp z,OneCode
 381:	4F56  3D      			dec a		;EX AF,AF'
 382:	4F57  CA2553  			jp z,OneCode
 383:	4F5A  C38553  			jp CmndError
 384:			
 385:	4F5D  79      	_ex_sp_		ld a,c
 386:	4F5E  0EE3    			ld c,#e3
 387:	4F60  FE11    			cp #11		;EX (SP),HL
 388:	4F62  CA2553  			jp z,OneCode
 389:	4F65  FE17    			cp #17		;EX (SP),IX
 390:	4F67  CA1C53  			jp z,PrDD_OneCode
 391:	4F6A  FE1A    			cp #1A		;EX (SP),IY
 392:	4F6C  CA2053  			jp z,PrFD_OneCode
 393:	4F6F  C38553  			jp CmndError
 394:			;INC ...
 395:	4F72  7C      	_inc		ld a,h
 396:	4F73  B7      			or a
 397:	4F74  C28553  			jp nz,CmndError
 398:	4F77  3E03    			ld a,#03	;корректировочный байт для BC/DE/HL/IX/IY/SP
 399:	4F79  08      			ex af,af' ;'
 400:	4F7A  0E04    			ld c,#04	;корректировочный байт для A/B/C...
 401:	4F7C  180A    			jr _dec2
 402:			;DEC ...
 403:	4F7E  7C      	_dec		ld a,h
 404:	4F7F  B7      			or a
 405:	4F80  C28553  			jp nz,CmndError
 406:	4F83  3E0B    			ld a,#0b	;корректировочный байт для BC/DE/HL/IX/IY/SP
 407:	4F85  08      			ex af,af' ;'
 408:	4F86  0E05    			ld c,#05	;корректировочный байт для A/B/C...
 409:	4F88  7D      	_dec2		ld a,l
 410:	4F89  21C153  			ld hl,Tbl_dec-1
 411:	4F8C  FE08    			cp #08		;DEC A/B/C/D/E/H/L
 412:	4F8E  3009    			jr nc,_dec1
 413:	4F90  D5      			push de
 414:	4F91  1600    			ld d,0
 415:	4F93  5F      			ld e,a
 416:	4F94  19      			add hl,de
 417:	4F95  D1      			pop de
 418:	4F96  C32553  			jp OneCode
 419:			
 420:	4F99  21C753  	_dec1		ld hl,Tbl_dec+5
 421:	4F9C  FE18    			cp #18		;DEC HX
 422:	4F9E  CA1C53  			jp z,PrDD_OneCode
 423:	4FA1  FE1B    			cp #1b		;DEC HY
 424:	4FA3  CA2053  			jp z,PrFD_OneCode
 425:	4FA6  23      			inc hl
 426:	4FA7  FE19    			cp #19		;DEC LX
 427:	4FA9  CA1C53  			jp z,PrDD_OneCode
 428:	4FAC  FE1C    			cp #1c		;DEC LY
 429:	4FAE  CA2053  			jp z,PrFD_OneCode
 430:	4FB1  23      			inc hl
 431:	4FB2  D620    			sub #20		;DEC (HL)
 432:	4FB4  CA2553  			jp z,OneCode
 433:	4FB7  3D      			dec a		;DEC (IX)
 434:	4FB8  CA3C53  			jp z,PrDD_RegS
 435:	4FBB  3D      			dec a		;DEC (IX+s)
 436:	4FBC  CA3C53  			jp z,PrDD_RegS
 437:	4FBF  3D      			dec a		;DEC (IY)
 438:	4FC0  CA4053  			jp z,PrFD_RegS
 439:	4FC3  3D      			dec a		;DEC (IY+s)
 440:	4FC4  CA4053  			jp z,PrFD_RegS
 441:	4FC7  08      			ex af,af' ;'
 442:	4FC8  4F      			ld c,a
 443:	4FC9  08      			ex af,af' ;'
 444:	4FCA  23      			inc hl
 445:	4FCB  C615    			add a,#24-#0f	;DEC BC
 446:	4FCD  CA2553  			jp z,OneCode
 447:	4FD0  23      			inc hl
 448:	4FD1  3D      			dec a		;DEC DE
 449:	4FD2  CA2553  			jp z,OneCode
 450:	4FD5  23      			inc hl
 451:	4FD6  3D      			dec a		;DEC HL
 452:	4FD7  CA2553  			jp z,OneCode
 453:	4FDA  23      			inc hl
 454:	4FDB  3D      			dec a		;DEC SP
 455:	4FDC  CA2553  			jp z,OneCode
 456:	4FDF  2B      			dec hl
 457:	4FE0  FE05    			cp #17-#12	;DEC IX
 458:	4FE2  CA1C53  			jp z,PrDD_OneCode
 459:	4FE5  FE08    			cp #1a-#12	;DEC IY
 460:	4FE7  CA2053  			jp z,PrFD_OneCode
 461:	4FEA  C38553  			jp CmndError
 462:			;IM ...
 463:	4FED  7C      	_im		ld a,h
 464:	4FEE  B7      			or a
 465:	4FEF  C28553  			jp nz,CmndError
 466:	4FF2  2C      			inc l
 467:	4FF3  C28553  			jp nz,CmndError
 468:	4FF6  3A6A69  			ld a,(Pass)
 469:	4FF9  B7      			or a
 470:	4FFA  2803    			jr z,_im2
 471:	4FFC  3A8D69  			ld a,(Var1)
 472:	4FFF  FE03    	_im2		cp #03
 473:	5001  D28553  			jp nc,CmndError
 474:	5004  3C      			inc a
 475:	5005  21BE53  			ld hl,Tbl_im-1
 476:	5008  23      	_im1		inc hl
 477:	5009  3D      			dec a		;IM 0/1/2
 478:	500A  20FC    			jr nz,_im1
 479:	500C  C31853  			jp PrED_OneCode
 480:			;RST ...
 481:	500F  7C      	_rst		ld a,h
 482:	5010  B7      			or a
 483:	5011  C28553  			jp nz,CmndError
 484:	5014  2C      			inc l
 485:	5015  C28553  			jp nz,CmndError
 486:	5018  3A6A69  			ld a,(Pass)
 487:	501B  B7      			or a
 488:	501C  2803    			jr z,_rst2
 489:	501E  3A8D69  			ld a,(Var1)
 490:	5021  FE39    	_rst2		cp #39
 491:	5023  D28553  			jp nc,CmndError
 492:	5026  C608    			add a,#08
 493:	5028  21B653  			ld hl,Tbl_rst-1
 494:	502B  23      	_rst1		inc hl
 495:	502C  D608    			sub #08		   ;RST #00/#08/#10/#18/#20/#28/#30/#38
 496:	502E  DA8553  			jp c,CmndError
 497:	5031  20F8    			jr nz,_rst1
 498:	5033  C32553  			jp OneCode
 499:			;OUT ..
 500:	5036  7D      	_out		ld a,l
 501:	5037  D61D    			sub #1d		;IN ..,(C)
 502:	5039  280D    			jr z,_out1
 503:	503B  3D      			dec a		;IN ..,(BC)
 504:	503C  280A    			jr z,_out1
 505:	503E  D6E0    			sub #fe-#1e	;IN ..,(N)
 506:	5040  C28553  			jp nz,CmndError
 507:	5043  0ED3    			ld c,#d3
 508:	5045  7C      			ld a,h
 509:	5046  1818    			jr _in2
 510:	5048  0E41    	_out1		ld c,#41
 511:	504A  7C      			ld a,h
 512:	504B  21AF53  			ld hl,Tbl_in+1
 513:	504E  1825    			jr _in3
 514:			;IN ..
 515:	5050  7C      	_in		ld a,h
 516:	5051  D61D    			sub #1d		;IN ..,(C)
 517:	5053  2815    			jr z,_in1
 518:	5055  3D      			dec a		;IN ..,(BC)
 519:	5056  2812    			jr z,_in1
 520:	5058  D6E0    			sub #fe-#1e	;IN ..,(N)
 521:	505A  C28553  			jp nz,CmndError
 522:	505D  0EDB    			ld c,#db
 523:	505F  7D      			ld a,l
 524:	5060  21AE53  	_in2		ld hl,Tbl_in
 525:	5063  3D      			dec a		;... A,(N)
 526:	5064  CA3253  			jp z,RegN
 527:	5067  C38553  			jp CmndError
 528:			
 529:	506A  0E40    	_in1		ld c,#40
 530:	506C  7D      			ld a,l
 531:	506D  21AF53  			ld hl,Tbl_in+1
 532:	5070  FE20    			cp #20		;IN (HL),(C)/(BC)
 533:	5072  CA1853  			jp z,PrED_OneCode
 534:			
 535:	5075  FE08    	_in3		cp #08		;... A/B/C/D/E/H/L,(C)/(BC)
 536:	5077  D28553  			jp nc,CmndError
 537:	507A  D5      			push de
 538:	507B  1600    			ld d,0
 539:	507D  5F      			ld e,a
 540:	507E  19      			add hl,de
 541:	507F  D1      			pop de
 542:	5080  C31853  			jp PrED_OneCode
 543:			;PUSH ..
 544:	5083  0EC5    	_push		ld c,#c5	;корректировочный байт
 545:	5085  1802    			jr _pop1
 546:			;POP ..
 547:	5087  0EC1    	_pop		ld c,#c1	;корректировочный байт
 548:	5089  7C      	_pop1		ld a,h
 549:	508A  B7      			or a
 550:	508B  C28553  			jp nz,CmndError
 551:	508E  7D      			ld a,l
 552:	508F  21AA53  			ld hl,Tbl_pop
 553:	5092  D60D    			sub #0d		;POP AF/BC/DE/HL
 554:	5094  CA2553  			jp z,OneCode
 555:	5097  23      			inc hl
 556:	5098  D602    			sub #0f-#0d	;POP BC
 557:	509A  CA2553  			jp z,OneCode
 558:	509D  23      			inc hl
 559:	509E  3D      			dec a		;POP DE
 560:	509F  CA2553  			jp z,OneCode
 561:	50A2  23      			inc hl
 562:	50A3  3D      			dec a		;POP HL
 563:	50A4  CA2553  			jp z,OneCode
 564:	50A7  D606    			sub #17-#11	;POP IX
 565:	50A9  CA1C53  			jp z,PrDD_OneCode
 566:	50AC  D603    			sub #1a-#17	;POP IY
 567:	50AE  CA2053  			jp z,PrFD_OneCode
 568:	50B1  C38553  			jp CmndError
 569:			;LD ..
 570:	50B4  7C      	_ld		ld a,h
 571:	50B5  B7      			or a
 572:	50B6  CA8553  			jp z,CmndError
 573:	50B9  7D      			ld a,l
 574:	50BA  3D      			dec a		;LD A,..
 575:	50BB  CA3A51  			jp z,_lda
 576:	50BE  FE05    			cp #06-#01	;LD B/C/D/E,..
 577:	50C0  DA5F51  			jp c,_ldbcde
 578:	50C3  FE07    			cp #08-#01	;LD H/L,..
 579:	50C5  DAB851  			jp c,_ldhl
 580:	50C8  FE09    			cp #0a-#01	;LD I/R,..
 581:	50CA  DAFB52  			jp c,_ldir_bc_de_
 582:	50CD  D60E    			sub #0f-#01	;LD BC,..
 583:	50CF  CAF151  			jp z,_ldbc_
 584:	50D2  3D      			dec a		;LD DE,..
 585:	50D3  CAF551  			jp z,_ldde_
 586:	50D6  3D      			dec a		;LD HL,..
 587:	50D7  CA0752  			jp z,_ldhl_
 588:	50DA  3D      			dec a		;LD SP,..
 589:	50DB  CA1752  			jp z,_ldsp_
 590:	50DE  D605    			sub #17-#12	;LD IX,..
 591:	50E0  CA3752  			jp z,_ldix_
 592:	50E3  3D      			dec a		;LD HX,..
 593:	50E4  CA4752  			jp z,_ldhx
 594:	50E7  3D      			dec a		;LD LX,..
 595:	50E8  CA4B52  			jp z,_ldlx
 596:	50EB  3D      			dec a		;LD IY,..
 597:	50EC  CA7252  			jp z,_ldiy_
 598:	50EF  3D      			dec a		;LD HY,..
 599:	50F0  CA8252  			jp z,_ldhy
 600:	50F3  3D      			dec a		;LD LY,..
 601:	50F4  CA8652  			jp z,_ldly
 602:	50F7  FE04    			cp #20-#1c	;LD (BC)/(DE),..
 603:	50F9  DAFB52  			jp c,_ldir_bc_de_
 604:	50FC  D604    			sub #20-#1c	;LD (HL),..
 605:	50FE  CAAD52  			jp z,_ld_hl_
 606:	5101  FE03    			cp #23-#20	;LD (IX)/(IX+s),..
 607:	5103  DAC752  			jp c,_ld_ix_
 608:	5106  FE05    			cp #25-#20	;LD (IY)/(IY+s),..
 609:	5108  DAE152  			jp c,_ld_iy_
 610:	510B  D6DE    			sub #fe-#20	;LD (NN),..
 611:	510D  C28553  			jp nz,CmndError
 612:	5110  7C      			ld a,h
 613:	5111  21A053  			ld hl,Tbl_ld4
 614:	5114  3D      			dec a		;LD (NN),A
 615:	5115  CA5C53  			jp z,RegNN
 616:	5118  23      			inc hl
 617:	5119  D60E    			sub #0f-#01	;LD (NN),BC
 618:	511B  CA4F53  			jp z,PrED_RegNN
 619:	511E  23      			inc hl
 620:	511F  3D      			dec a		;LD (NN),DE
 621:	5120  CA4F53  			jp z,PrED_RegNN
 622:	5123  23      			inc hl
 623:	5124  3D      			dec a		;LD (NN),HL
 624:	5125  CA5C53  			jp z,RegNN
 625:	5128  FE06    			cp #17-#11	;LD (NN),IX
 626:	512A  CA5353  			jp z,PrDD_RegNN
 627:	512D  FE09    			cp #1A-#11	;LD (NN),IY
 628:	512F  CA5753  			jp z,PrFD_RegNN
 629:	5132  23      			inc hl
 630:	5133  3D      			dec a		;LD (NN),SP
 631:	5134  CA4F53  			jp z,PrED_RegNN
 632:	5137  C38553  			jp CmndError
 633:			
 634:	513A  7C      	_lda		ld a,h
 635:	513B  219953  			ld hl,Tbl_ld2+9
 636:	513E  FEFE    			cp #fe		;LD A,(NN)
 637:	5140  CA5C53  			jp z,RegNN
 638:	5143  23      			inc hl
 639:	5144  FE1E    			cp #1e		;LD A,(BC)
 640:	5146  CA2553  			jp z,OneCode
 641:	5149  23      			inc hl
 642:	514A  FE1F    			cp #1f		;LD A,(DE)
 643:	514C  CA2553  			jp z,OneCode
 644:	514F  23      			inc hl
 645:	5150  FE08    			cp #08		;LD A,I
 646:	5152  CA1853  			jp z,PrED_OneCode
 647:	5155  23      			inc hl
 648:	5156  FE09    			cp #09		;LD A,R
 649:	5158  CA1853  			jp z,PrED_OneCode
 650:	515B  0E3E    			ld c,#3e	;корректирующий байт
 651:	515D  1814    			jr _ldbcde3
 652:			
 653:	515F  7D      	_ldbcde		ld a,l
 654:	5160  0E06    			ld c,#06
 655:	5162  D602    			sub #02		;LD B,..
 656:	5164  280C    			jr z,_ldbcde1
 657:	5166  0E0E    			ld c,#0e
 658:	5168  3D      			dec a		;LD C,..
 659:	5169  2807    			jr z,_ldbcde1
 660:	516B  0E16    			ld c,#16
 661:	516D  3D      			dec a		;LD D,..
 662:	516E  2802    			jr z,_ldbcde1
 663:	5170  0E1E    			ld c,#1e	;LD E,..
 664:	5172  7C      	_ldbcde1	ld a,h		;2-ой операнд
 665:	5173  219053  	_ldbcde3	ld hl,Tbl_ld2
 666:	5176  FE08    			cp #08		;LD ..,A/B/C/D/E/H/L
 667:	5178  3009    			jr nc,_ldbcde2
 668:	517A  D5      			push de
 669:	517B  1600    			ld d,0
 670:	517D  5F      			ld e,a
 671:	517E  19      			add hl,de
 672:	517F  D1      			pop de
 673:	5180  C32553  			jp OneCode
 674:			
 675:	5183  3C      	_ldbcde2	inc a		;LD ..,N
 676:	5184  CA3253  			jp z,RegN
 677:	5187  219653  			ld hl,Tbl_ld2+6
 678:	518A  FE19    			cp #18+#01	;LD ..,HX
 679:	518C  CA1C53  			jp z,PrDD_OneCode
 680:	518F  FE1C    			cp #1b+#01	;LD ..,HY
 681:	5191  CA2053  			jp z,PrFD_OneCode
 682:	5194  23      			inc hl
 683:	5195  FE1A    			cp #19+#01	;LD ..,LX
 684:	5197  CA1C53  			jp z,PrDD_OneCode
 685:	519A  FE1D    			cp #1c+#01	;LD ..,LY
 686:	519C  CA2053  			jp z,PrFD_OneCode
 687:	519F  23      			inc hl
 688:	51A0  D621    			sub #20+#01	;LD ..,(HL)
 689:	51A2  CA2553  			jp z,OneCode
 690:	51A5  3D      			dec a		;LD ..,(IX)
 691:	51A6  CA3C53  			jp z,PrDD_RegS
 692:	51A9  3D      			dec a		;LD ..,(IX+s)
 693:	51AA  CA3C53  			jp z,PrDD_RegS
 694:	51AD  3D      			dec a		;LD ..,(IY)
 695:	51AE  CA4053  			jp z,PrFD_RegS
 696:	51B1  3D      			dec a		;LD ..,(IY+s)
 697:	51B2  CA4053  			jp z,PrFD_RegS
 698:	51B5  C38553  			jp CmndError
 699:			
 700:	51B8  7D      	_ldhl		ld a,l
 701:	51B9  0E26    			ld c,#26
 702:	51BB  D606    			sub #06		;LD H,..
 703:	51BD  2802    			jr z,_ldhl1
 704:	51BF  0E2E    			ld c,#2e	;LD L,..
 705:	51C1  7C      	_ldhl1		ld a,h		;2-ой операнд
 706:	51C2  219053  			ld hl,Tbl_ld2
 707:	51C5  FE08    			cp #08		;LD ..,A/B/C/D/E/H/L
 708:	51C7  3009    			jr nc,_ldhl2
 709:	51C9  D5      			push de
 710:	51CA  1600    			ld d,0
 711:	51CC  5F      			ld e,a
 712:	51CD  19      			add hl,de
 713:	51CE  D1      			pop de
 714:	51CF  C32553  			jp OneCode
 715:			
 716:	51D2  3C      	_ldhl2		inc a		;LD ..,N
 717:	51D3  CA3253  			jp z,RegN
 718:	51D6  219853  			ld hl,Tbl_ld2+8
 719:	51D9  D621    			sub #20+#01	;LD ..,(HL)
 720:	51DB  CA2553  			jp z,OneCode
 721:	51DE  3D      			dec a		;LD ..,(IX)
 722:	51DF  CA3C53  			jp z,PrDD_RegS
 723:	51E2  3D      			dec a		;LD ..,(IX+s)
 724:	51E3  CA3C53  			jp z,PrDD_RegS
 725:	51E6  3D      			dec a		;LD ..,(IY)
 726:	51E7  CA4053  			jp z,PrFD_RegS
 727:	51EA  3D      			dec a		;LD ..,(IY+s)
 728:	51EB  CA4053  			jp z,PrFD_RegS
 729:	51EE  C38553  			jp CmndError
 730:			
 731:	51F1  0E01    	_ldbc_		ld c,#01
 732:	51F3  1802    			jr _ldde_1
 733:	51F5  0E11    	_ldde_		ld c,#11
 734:	51F7  7C      	_ldde_1		ld a,h
 735:	51F8  219E53  			ld hl,Tbl_ld3
 736:	51FB  3C      			inc a		;LD ..,NN
 737:	51FC  CA5C53  			jp z,RegNN
 738:	51FF  23      			inc hl
 739:	5200  3C      			inc a		;LD ..,(NN)
 740:	5201  CA4F53  			jp z,PrED_RegNN
 741:	5204  C38553  			jp CmndError
 742:			
 743:	5207  7C      	_ldhl_		ld a,h
 744:	5208  21A553  			ld hl,Tbl_ld5
 745:	520B  3C      			inc a		;LD HL,NN
 746:	520C  CA5C53  			jp z,RegNN
 747:	520F  23      			inc hl
 748:	5210  3C      			inc a		;LD HL,(NN)
 749:	5211  CA5C53  			jp z,RegNN
 750:	5214  C38553  			jp CmndError
 751:			
 752:	5217  7C      	_ldsp_		ld a,h
 753:	5218  21A753  			ld hl,Tbl_ld6
 754:	521B  FE11    			cp #11		;LD SP,HL
 755:	521D  CA2553  			jp z,OneCode
 756:	5220  FE17    			cp #17		;LD SP,IX
 757:	5222  CA1C53  			jp z,PrDD_OneCode
 758:	5225  FE1A    			cp #1a		;LD SP,IY
 759:	5227  CA2053  			jp z,PrFD_OneCode
 760:	522A  23      			inc hl
 761:	522B  3C      			inc a		;LD SP,NN
 762:	522C  CA5C53  			jp z,RegNN
 763:	522F  23      			inc hl
 764:	5230  3C      			inc a		;LD SP,(NN)
 765:	5231  CA4F53  			jp z,PrED_RegNN
 766:	5234  C38553  			jp CmndError
 767:			
 768:	5237  7C      	_ldix_		ld a,h
 769:	5238  21A553  			ld hl,Tbl_ld5
 770:	523B  3C      			inc a		;LD IX,NN
 771:	523C  CA5353  			jp z,PrDD_RegNN
 772:	523F  23      			inc hl
 773:	5240  3C      			inc a		;LD IX,(NN)
 774:	5241  CA5353  			jp z,PrDD_RegNN
 775:	5244  C38553  			jp CmndError
 776:			
 777:	5247  0E26    	_ldhx		ld c,#26	;LD HX,..
 778:	5249  2802    			jr z,_ldhlx1
 779:	524B  0E2E    	_ldlx		ld c,#2e	;LD LX,..
 780:	524D  7C      	_ldhlx1		ld a,h		;2-ой операнд
 781:	524E  219053  			ld hl,Tbl_ld2
 782:	5251  FE06    			cp #06		;LD ..,A/B/C/D/E
 783:	5253  3009    			jr nc,_ldhlx2
 784:	5255  D5      			push de
 785:	5256  1600    			ld d,0
 786:	5258  5F      			ld e,a
 787:	5259  19      			add hl,de
 788:	525A  D1      			pop de
 789:	525B  C31C53  			jp PrDD_OneCode
 790:			
 791:	525E  3C      	_ldhlx2		inc a		;LD ..,N
 792:	525F  CA2953  			jp z,PrDD_RegN
 793:	5262  219653  			ld hl,Tbl_ld2+6
 794:	5265  D619    			sub #18+#01	;LD ..,HX
 795:	5267  CA1C53  			jp z,PrDD_OneCode
 796:	526A  23      			inc hl
 797:	526B  3D      			dec a		;LD ..,LX
 798:	526C  CA1C53  			jp z,PrDD_OneCode
 799:	526F  C38553  			jp CmndError
 800:			
 801:	5272  7C      	_ldiy_		ld a,h
 802:	5273  21A553  			ld hl,Tbl_ld5
 803:	5276  3C      			inc a		;LD IY,NN
 804:	5277  CA5753  			jp z,PrFD_RegNN
 805:	527A  23      			inc hl
 806:	527B  3C      			inc a		;LD IY,(NN)
 807:	527C  CA5753  			jp z,PrFD_RegNN
 808:	527F  C38553  			jp CmndError
 809:			
 810:	5282  0E26    	_ldhy		ld c,#26	;LD HY,..
 811:	5284  2802    			jr z,_ldhly1
 812:	5286  0E2E    	_ldly		ld c,#2e	;LD LX,..
 813:	5288  7C      	_ldhly1		ld a,h		;2-ой операнд
 814:	5289  219053  			ld hl,Tbl_ld2
 815:	528C  FE06    			cp #06		;LD ..,A/B/C/D/E
 816:	528E  3009    			jr nc,_ldhly2
 817:	5290  D5      			push de
 818:	5291  1600    			ld d,0
 819:	5293  5F      			ld e,a
 820:	5294  19      			add hl,de
 821:	5295  D1      			pop de
 822:	5296  C32053  			jp PrFD_OneCode
 823:			
 824:	5299  3C      	_ldhly2		inc a		;LD ..,N
 825:	529A  CA2D53  			jp z,PrFD_RegN
 826:	529D  219653  			ld hl,Tbl_ld2+6
 827:	52A0  D61C    			sub #1b+#01	;LD ..,HY
 828:	52A2  CA2053  			jp z,PrFD_OneCode
 829:	52A5  23      			inc hl
 830:	52A6  3D      			dec a		;LD ..,LY
 831:	52A7  CA2053  			jp z,PrFD_OneCode
 832:	52AA  C38553  			jp CmndError
 833:			
 834:	52AD  0E36    	_ld_hl_		ld c,#36	;корректировочный байт
 835:	52AF  7C      			ld a,h		;2-ой операнд
 836:	52B0  219053  			ld hl,Tbl_ld2
 837:	52B3  FE08    			cp #08		;LD ..,A/B/C/D/E/H/L
 838:	52B5  3009    			jr nc,_ld_hl_1
 839:	52B7  D5      			push de
 840:	52B8  1600    			ld d,0
 841:	52BA  5F      			ld e,a
 842:	52BB  19      			add hl,de
 843:	52BC  D1      			pop de
 844:	52BD  C32553  			jp OneCode
 845:			
 846:	52C0  3C      	_ld_hl_1	inc a		;LD ..,N
 847:	52C1  CA3253  			jp z,RegN
 848:	52C4  C38553  			jp CmndError
 849:			
 850:	52C7  0E36    	_ld_ix_		ld c,#36	;корректировочный байт
 851:	52C9  7C      			ld a,h		;2-ой операнд
 852:	52CA  219053  			ld hl,Tbl_ld2
 853:	52CD  FE08    			cp #08		;LD ..,A/B/C/D/E/H/L
 854:	52CF  3009    			jr nc,_ld_ix_1
 855:	52D1  D5      			push de
 856:	52D2  1600    			ld d,0
 857:	52D4  5F      			ld e,a
 858:	52D5  19      			add hl,de
 859:	52D6  D1      			pop de
 860:	52D7  C33C53  			jp PrDD_RegS
 861:			
 862:	52DA  3C      	_ld_ix_1	inc a		;LD ..,N
 863:	52DB  CA6C53  			jp z,PrDD_RegNS
 864:	52DE  C38553  			jp CmndError
 865:			
 866:	52E1  0E36    	_ld_iy_		ld c,#36	;корректировочный байт
 867:	52E3  7C      			ld a,h		;2-ой операнд
 868:	52E4  219053  			ld hl,Tbl_ld2
 869:	52E7  FE08    			cp #08		;LD ..,A/B/C/D/E/H/L
 870:	52E9  3009    			jr nc,_ld_iy_1
 871:	52EB  D5      			push de
 872:	52EC  1600    			ld d,0
 873:	52EE  5F      			ld e,a
 874:	52EF  19      			add hl,de
 875:	52F0  D1      			pop de
 876:	52F1  C34053  			jp PrFD_RegS
 877:			
 878:	52F4  3C      	_ld_iy_1	inc a		;LD ..,N
 879:	52F5  CA7053  			jp z,PrFD_RegNS
 880:	52F8  C38553  			jp CmndError
 881:			
 882:	52FB  7C      	_ldir_bc_de_	ld a,h
 883:	52FC  3D      			dec a
 884:	52FD  C28553  			jp nz,CmndError
 885:	5300  7D      			ld a,l
 886:	5301  218C53  			ld hl,Tbl_ld1
 887:	5304  D608    			sub #08		;LD I,A
 888:	5306  CA1853  			jp z,PrED_OneCode
 889:	5309  23      			inc hl
 890:	530A  3D      			dec a		;LD R,A
 891:	530B  CA1853  			jp z,PrED_OneCode
 892:	530E  23      			inc hl
 893:	530F  D615    			sub #1e-#09	;LD (BC),A
 894:	5311  CA2553  			jp z,OneCode
 895:	5314  23      			inc hl		;LD (DE),A
 896:	5315  C32553  			jp OneCode
 897:			;
 898:			;Вычисление кодов мнемоник
 899:			;
 900:	5318  3EED    	PrED_OneCode	ld a,#ed
 901:	531A  1806    			jr $+8
 902:	531C  3EDD    	PrDD_OneCode	ld a,#dd
 903:	531E  1802    			jr $+4
 904:	5320  3EFD    	PrFD_OneCode	ld a,#fd
 905:	5322  12      			ld (de),a
 906:	5323  13      			inc de
 907:	5324  04      			inc b
 908:	5325  7E      	OneCode		ld a,(hl)
 909:	5326  81      			add a,c
 910:	5327  12      			ld (de),a
 911:	5328  C9      			ret
 912:			
 913:			;PrED_RegN	 ld a,#ed
 914:			;		 jr $+8
 915:	5329  3EDD    	PrDD_RegN	ld a,#dd
 916:	532B  1802    			jr $+4
 917:	532D  3EFD    	PrFD_RegN	ld a,#fd
 918:	532F  12      			ld (de),a
 919:	5330  13      			inc de
 920:	5331  04      			inc b
 921:	5332  7E      	RegN		ld a,(hl)
 922:	5333  81      			add a,c
 923:	5334  12      			ld (de),a
 924:	5335  13      			inc de
 925:	5336  04      			inc b
 926:	5337  3A8D69  			ld a,(Var1)
 927:	533A  12      			ld (de),a
 928:	533B  C9      			ret
 929:			
 930:			;PrED_RegS	 ld a,#ed
 931:			;		 jr $+8
 932:	533C  3EDD    	PrDD_RegS	ld a,#dd
 933:	533E  1802    			jr $+4
 934:	5340  3EFD    	PrFD_RegS	ld a,#fd
 935:	5342  12      			ld (de),a
 936:	5343  13      			inc de
 937:	5344  04      			inc b
 938:	5345  7E      	RegS		ld a,(hl)
 939:	5346  81      			add a,c
 940:	5347  12      			ld (de),a
 941:	5348  13      			inc de
 942:	5349  04      			inc b
 943:	534A  3A8F69  			ld a,(Var2)
 944:	534D  12      			ld (de),a
 945:	534E  C9      			ret
 946:			
 947:	534F  3EED    	PrED_RegNN	ld a,#ed
 948:	5351  1806    			jr $+8
 949:	5353  3EDD    	PrDD_RegNN	ld a,#dd
 950:	5355  1802    			jr $+4
 951:	5357  3EFD    	PrFD_RegNN	ld a,#fd
 952:	5359  12      			ld (de),a
 953:	535A  13      			inc de
 954:	535B  04      			inc b
 955:	535C  7E      	RegNN		ld a,(hl)
 956:	535D  81      			add a,c
 957:	535E  12      			ld (de),a
 958:	535F  13      			inc de
 959:	5360  04      			inc b
 960:	5361  3A8D69  			ld a,(Var1)
 961:	5364  12      			ld (de),a
 962:	5365  13      			inc de
 963:	5366  04      			inc b
 964:	5367  3A8E69  			ld a,(Var1+1)
 965:	536A  12      			ld (de),a
 966:	536B  C9      			ret
 967:			
 968:			;PrED_RegNS	 ld a,#ed
 969:			;		 jr $+8
 970:	536C  3EDD    	PrDD_RegNS	ld a,#dd
 971:	536E  1802    			jr $+4
 972:	5370  3EFD    	PrFD_RegNS	ld a,#fd
 973:	5372  12      			ld (de),a
 974:	5373  13      			inc de
 975:	5374  04      			inc b
 976:	5375  7E      	RegNS		ld a,(hl)
 977:	5376  81      			add a,c
 978:	5377  12      			ld (de),a
 979:	5378  13      			inc de
 980:	5379  04      			inc b
 981:	537A  3A8F69  			ld a,(Var2)
 982:	537D  12      			ld (de),a
 983:	537E  13      			inc de
 984:	537F  04      			inc b
 985:	5380  3A8D69  			ld a,(Var1)
 986:	5383  12      			ld (de),a
 987:	5384  C9      			ret
 988:			
 989:	5385  D9      	CmndError	exx
 990:	5386  78      			ld a,b		;следующий символ в строке
 991:	5387  0601    			ld b,SyntaxEr	;"Синтаксическая ошибка"
 992:	5389  C37360  			jp SkipStrC	;выход с ошибкой
 993:			
 994:	538C  474F0212	Tbl_ld1		db #47,#4f,#02,#12
 995:	5390  00413A3B	Tbl_ld2		db #00,#41,#3a,#3b,#3c,#3d,#3e,#3f,#40,#3a,#0a,#1a,#57,#5f
	      3C3D3E3F
	      403A0A1A
	      575F
 996:	539E  004A    	Tbl_ld3		db #00,#4a
 997:	53A0  32435322	Tbl_ld4		db #32,#43,#53,#22,#73
	      73
 998:	53A5  212A    	Tbl_ld5		db #21,#2a
 999:	53A7  F9317B  	Tbl_ld6		db #f9,#31,#7b
1000:	53AA  30001020	Tbl_pop		db #30,#00,#10,#20
1001:	53AE  00303800	Tbl_in		db #00,#30,#38,#00,#08,#10,#18,#20,#28
	      08101820
	      28
1002:	53B7  C7CFD7DF	Tbl_rst		db #c7,#cf,#d7,#df,#e7,#ef,#f7,#ff
	      E7EFF7FF
1003:	53BF  46565E  	Tbl_im		db #46,#56,#5e
1004:	53C2  38000810	Tbl_dec		db #38,#00,#08,#10,#18,#20,#28,#30
	      18202830
1005:	53CA  00102030			db #00,#10,#20,#30
1006:	53CE  09183830	Tbl_call	db #09,#18,#38,#30,#08,#20,#00,#28,#10
	      08200028
	      10
1007:	53D7  0127    	Tbl_jp		db #01,#27
1008:	53D9  06070001	Tbl_bit		db #06,#07,#00,#01,#02,#03,#04,#05
	      02030405
1009:	53E1  06460010	Tbl_adc		db #06,#46,#00,#10,#20,#30
	      2030
1010:	53E7  38282030	Tbl_jr		db #38,#28,#20,#30
**** orgasm.asm ****
1289:			                include "d_cmnd.asm"
**** d_cmnd.asm ****
   1:			;-----------------------------------------------------------------------------
   2:			;--		       Разбор операторов компилятора			    --
   3:			;-----------------------------------------------------------------------------
   4:			;
   5:			;ORG ...
   6:	53EB  08      	_org		ex af,af' ;'
   7:	53EC  0608    			ld b,InadmisORG ;недопустим ORG в блоке PHASE/DEPHASE
   8:	53EE  3A7769  			ld a,(PhaseFlag)
   9:	53F1  3C      			inc a
  10:	53F2  CA7360  			jp z,SkipStrC
  11:	53F5  08      			ex af,af' ;'
  12:	53F6  CD905B  			call GetVar2	;вызов калькулятора
  13:	53F9  ED539F69			ld (PCAddres),de
  14:	53FD  08      			ex af,af' ;';начало доработки для v0.2X
  15:	53FE  3A6A69  			ld a,(Pass)
  16:	5401  3C      			inc a
  17:	5402  2012    			jr nz,_org1
  18:	5404  ED4B7F69			ld bc,(SaveObjAdr)
  19:	5408  3E80    			ld a,#80
  20:	540A  90      			sub b
  21:	540B  B1      			or c
  22:	540C  2008    			jr nz,_org1
  23:	540E  ED537869			ld (New1),de
  24:	5412  ED537A69			ld (New2),de
  25:	5416  08      	_org1		ex af,af' ;';конец доработки для v0.2X
  26:	5417  0600    			ld b,0
  27:	5419  C9      			ret
  28:			;ENTRY...
  29:	541A  CD515B  	_entry		call GetVar ; добавлено целиком в v0.2X
  30:	541D  ED537A69			ld (New2), de
  31:	5421  0600    			ld b,0
  32:	5423  C9      			ret
  33:			;STACK...
  34:	5424  CD515B  	_stack		call GetVar ; добавлено целиком в v0.2X
  35:	5427  ED537C69			ld (New3), de
  36:	542B  0600    			ld b,0
  37:	542D  C9      			ret
  38:			;PHASE...
  39:	542E  08      	_phase		ex af,af' ;'
  40:	542F  0606    			ld b,PhaseEr	;ошибка "Вложенный Phase"
  41:	5431  3A7769  			ld a,(PhaseFlag)
  42:	5434  3D      			dec a
  43:	5435  3C      			inc a
  44:	5436  C27360  			jp nz,SkipStrC
  45:	5439  3D      			dec a
  46:	543A  327769  			ld (PhaseFlag),a;устанавливаем флаг Phase
  47:	543D  08      			ex af,af' ;'
  48:	543E  E5      			push hl
  49:	543F  2A9F69  			ld hl,(PCAddres);сохраняем текущий адрес ассемблирования
  50:	5442  22A169  			ld (OrgAddres),hl
  51:	5445  E1      			pop hl
  52:	5446  CD905B  			call GetVar2	;расчет адреса
  53:	5449  ED539F69			ld (PCAddres),de
  54:	544D  ED53A369			ld (PhaseAddres),de
  55:	5451  0600    			ld b,0
  56:	5453  C9      			ret
  57:			;DEPHASE...
  58:	5454  08      	_dephase	ex af,af' ;'
  59:	5455  0606    			ld b,PhaseEr	;ошибка "Не было Phase"
  60:	5457  3A7769  			ld a,(PhaseFlag)
  61:	545A  3C      			inc a
  62:	545B  C27360  			jp nz,SkipStrC
  63:	545E  327769  			ld (PhaseFlag),a;сбрасываем флаг Phase
  64:	5461  08      			ex af,af' ;'
  65:	5462  E5      			push hl
  66:	5463  ED5BA369			ld de,(PhaseAddres)
  67:	5467  2A9F69  			ld hl,(PCAddres)
  68:	546A  B7      			or a
  69:	546B  ED52    			sbc hl,de
  70:	546D  ED5BA169			ld de,(OrgAddres)
  71:	5471  19      			add hl,de
  72:	5472  229F69  			ld (PCAddres),hl
  73:	5475  E1      			pop hl
  74:	5476  0600    			ld b,0
  75:	5478  C9      			ret
  76:			;DB ...
  77:	5479  ED73EC54	_db		ld (SaveSP),sp ; добавлено в v0.2X
  78:	547D  1802    			jr _db2
  79:	547F  7E      	_db1		ld a,(hl)
  80:	5480  23      			inc hl
  81:	5481  FE20    	_db2		cp " "
  82:	5483  CC6860  			call z,SkipSpace
  83:	5486  FE09    			cp #09
  84:	5488  CC6860  			call z,SkipSpace
  85:			
  86:	548B  FE27    			cp "'"		;символьное выражение
  87:	548D  2816    			jr z,CharVar
  88:	548F  FE22    			cp '"'		;символьное выражение
  89:	5491  2812    			jr z,CharVar
  90:	5493  D5      	_db0		push de
  91:	5494  CD515B  			call GetVar
  92:	5497  4F      			ld c,a
  93:	5498  7B      			ld a,e		;значение после калькулятора
  94:	5499  D1      			pop de
  95:	549A  12      			ld (de),a	;в буфер
  96:	549B  79      			ld a,c
  97:	549C  13      			inc de
  98:	549D  04      			inc b
  99:	549E  2027    			jr nz,CV3
 100:	54A0  060A    			ld b,DBInstrEr	;"В DB, DW болше 255 байт"
 101:	54A2  C37360  			jp SkipStrC
 102:			
 103:	54A5  4F      	CharVar		ld c,a		;запомнили тип кавычки
 104:	54A6  C5      			push bc ; добавлено в v0.2X
 105:	54A7  D5      			push de ; добавлено в v0.2X
 106:	54A8  E5      			push hl ; добавлено в v0.2X
 107:	54A9  7E      	CV2		ld a,(hl)	;следующий символ
 108:	54AA  23      			inc hl
 109:	54AB  FE09    			cp #09		;проверка табуляции - добавлено в v0.2X
 110:	54AD  2809    			jr z,CV2A ; +9
 111:	54AF  FE20    			cp #20		;код символа меньше пробела?
 112:	54B1  3005    			jr nc,CV2A
 113:	54B3  0601    			ld b,1
 114:	54B5  C37360  			jp SkipStrC
 115:	54B8  B9      	CV2A		cp c
 116:	54B9  280A    			jr z,CV1
 117:	54BB  12      			ld (de),a	;символ в буфер
 118:	54BC  13      			inc de
 119:	54BD  04      			inc b
 120:	54BE  20E9    			jr nz,CV2
 121:	54C0  060A    			ld b,DBInstrEr	;"В DB, DW болше 255 байт"
 122:	54C2  C37360  			jp SkipStrC
 123:			
 124:	54C5  7E      	CV1		ld a,(hl)
 125:	54C6  23      			inc hl
 126:	54C7  FE20    	CV3		cp " "
 127:	54C9  CC6860  			call z,SkipSpace
 128:	54CC  FE09    			cp #09
 129:	54CE  CC6860  			call z,SkipSpace
 130:	54D1  FE0D    			cp #0d
 131:	54D3  2812    			jr z,SV4
 132:	54D5  FE3A    			cp ":"
 133:	54D7  280E    			jr z,SV4
 134:	54D9  FE3B    			cp ";"
 135:	54DB  280A    			jr z,SV4
 136:	54DD  FE2C    			cp ","
 137:	54DF  289E    			jr z,_db1
 138:	54E1  79      			ld a,c ; добавлено в v0.2X
 139:	54E2  E1      			pop hl
 140:	54E3  D1      			pop de
 141:	54E4  C1      			pop bc
 142:	54E5  18AC    			jr _db0
 143:	54E7  ED7BEC54	SV4		ld sp,(SaveSP)
 144:	54EB  C9      			ret
 145:	54EC  0000    	SaveSP		dw 0
 146:			;DW ...
 147:	54EE  7E      	_dw1		ld a,(hl)
 148:	54EF  23      			inc hl
 149:	54F0  FE20    	_dw		cp " "		;пропуск начальных пробелов
 150:	54F2  CC6860  			call z,SkipSpace
 151:	54F5  FE09    			cp #09		;и табуляции
 152:	54F7  CC6860  			call z,SkipSpace
 153:			
 154:	54FA  D5      			push de
 155:	54FB  CD515B  			call GetVar
 156:	54FE  08      			ex af,af' ;'
 157:	54FF  4A      			ld c,d
 158:	5500  7B      			ld a,e		;значение после калькулятора
 159:	5501  D1      			pop de
 160:	5502  12      			ld (de),a	;в буфер
 161:	5503  13      			inc de
 162:	5504  04      			inc b
 163:	5505  2006    			jr nz,_dw2
 164:	5507  08      			ex af,af' ;'
 165:	5508  060A    			ld b,DBInstrEr	;"В DB, DW болше 255 байт"
 166:	550A  C37360  			jp SkipStrC
 167:			
 168:	550D  79      	_dw2		ld a,c
 169:	550E  12      			ld (de),a	;в буфер
 170:	550F  13      			inc de
 171:	5510  04      			inc b
 172:	5511  08      			ex af,af' ;'
 173:			
 174:	5512  FE20    			cp " "
 175:	5514  CC6860  			call z,SkipSpace
 176:	5517  FE09    			cp #09
 177:	5519  CC6860  			call z,SkipSpace
 178:	551C  FE0D    			cp #0d
 179:	551E  C8      			ret z
 180:	551F  FE3A    			cp ":"
 181:	5521  C8      			ret z
 182:	5522  FE3B    			cp ";"
 183:	5524  C8      			ret z
 184:	5525  FE2C    			cp ","
 185:	5527  28C5    			jr z,_dw1
 186:			
 187:	5529  0601    			ld b,SyntaxEr	;"Синтаксическая ошибка"
 188:	552B  C37360  			jp SkipStrC	;выход с ошибкой
 189:			;DS ...
 190:	552E          	_ds ; нижеследующее закомменчено для v0.2X
 191:			;		push hl
 192:			;		ld hl,WordBuf	;спрятать метку из буфера
 193:			;		 ld de,DataBuf
 194:			;		ld bc,255
 195:			;		ldir
 196:			;		pop hl
 197:	552E  CD905B  			call GetVar2
 198:			
 199:	5531  D5      			push de
 200:	5532  E5      			push hl
 201:			;		ld hl,DataBuf	;востановить метку из буфера
 202:			;		ld de,WordBuf
 203:			;		ld bc,255
 204:			;		ldir
 205:	5533  11AE6B  			ld de,DataBuf
 206:	5536  08      			ex af,af' ;'
 207:	5537  AF      			xor a
 208:	5538  12      			ld (de),a	;зануляем 1-ый байт буф.(конст.по умолчанию)
 209:	5539  08      			ex af,af' ;'
 210:	553A  E1      			pop hl
 211:	553B  0601    			ld b,1
 212:			
 213:	553D  FE20    			cp " "		;пропуск пробелов
 214:	553F  CC6860  			call z,SkipSpace
 215:	5542  FE09    			cp #09		;и табуляции
 216:	5544  CC6860  			call z,SkipSpace
 217:	5547  FE2C    			cp ","		;есть второй операнд?
 218:	5549  2006    			jr nz,_ds1
 219:			
 220:	554B  05      			dec b
 221:	554C  7E      			ld a,(hl)
 222:	554D  23      			inc hl
 223:	554E  CD7954  			call _db	;повторяемые байты
 224:			
 225:	5551  D1      	_ds1		pop de
 226:	5552  7A      			ld a,d
 227:	5553  B3      			or e
 228:	5554  2811    			jr z,_ds2	;если кол-во повторов 0, то выход
 229:	5556  E5      			push hl
 230:	5557  C5      	_ds3		push bc
 231:	5558  D5      			push de
 232:	5559  11AE6B  			ld de,DataBuf
 233:	555C  CDED49  			call ObjCopy
 234:	555F  D1      			pop de
 235:	5560  C1      			pop bc
 236:	5561  1B      			dec de
 237:	5562  7A      			ld a,d
 238:	5563  B3      			or e
 239:	5564  20F1    			jr nz,_ds3
 240:			
 241:	5566  E1      			pop hl
 242:	5567  2B      	_ds2		dec hl
 243:	5568  7E      			ld a,(hl)
 244:	5569  23      			inc hl
 245:	556A  0600    			ld b,0
 246:	556C  C9      			ret
 247:			;INCLUDE...
 248:	556D  E5      	_include	push hl
 249:	556E  CD8860  			call SpecFile
 250:	5571  FE2C    			cp #2C ; добавлено в v0.2X
 251:	5573  CA7360  			jp z,SkipStrC
 252:	5576  CDF360  			call AddExtAsm
 253:			
 254:	5579  3A8269  			ld a,(CurrentFile)
 255:	557C  CDA646  			call GoSpec
 256:			;		 ld de,#0005
 257:			;		 add hl,de
 258:	557F  23      			inc hl
 259:	5580  23      			inc hl
 260:	5581  23      			inc hl
 261:	5582  D1      			pop de
 262:	5583  3A9469  			ld a,(TextPage) ;текущий лог.N банки с текстом
 263:	5586  77      			ld (hl),a
 264:	5587  23      			inc hl
 265:	5588  73      			ld (hl),e	;запоминаем начало имени файла в исходнике
 266:	5589  23      			inc hl
 267:	558A  72      			ld (hl),d
 268:	558B  23      			inc hl
 269:	558C  ED5B9769			ld de,(NumString)
 270:	5590  73      			ld (hl),e	;запоминаем номер строки компиляции
 271:	5591  23      			inc hl
 272:	5592  72      			ld (hl),d
 273:	5593  110000  			ld de,#0000	;и обнуляем его
 274:	5596  ED539769			ld (NumString),de
 275:			
 276:	559A  214C66  			ld hl,Including
 277:	559D  0E5C    			ld c,PChars
 278:	559F  CD1248  			call DSS
 279:			
 280:	55A2  21AE6B  			ld hl,DataBuf
 281:	55A5  CDB446  			call LoadFile
 282:			
 283:	55A8  0600    			ld b,#00
 284:	55AA  3E0D    			ld a,#0d
 285:	55AC  C9      			ret
 286:			;INCBIN...
 287:	55AD  CD8860  	_incbin		call SpecFile ;добавлено целиком в v0.2X
 288:	55B0  110000  			ld de,0
 289:	55B3  FE2C    			cp #2C
 290:	55B5  F5      			push af
 291:	55B6  D5      			push de
 292:	55B7  202D    			jr nz,IB2A
 293:	55B9  D1      			pop de
 294:	55BA  F1      			pop af
 295:	55BB  7E      			ld a,(hl)
 296:	55BC  23      			inc hl
 297:	55BD  CD905B  			call GetVar2
 298:	55C0  FE2C    			cp #2C
 299:	55C2  F5      			push af
 300:	55C3  D5      			push de
 301:	55C4  2008    			jr nz,IB1
 302:	55C6  7E      			ld a,(hl)
 303:	55C7  23      			inc hl
 304:	55C8  CD905B  			call GetVar2
 305:	55CB  EB      			ex de,hl
 306:	55CC  E3      			ex (sp),hl
 307:	55CD  EB      			ex de,hl
 308:	55CE  0601    	IB1		ld b,1
 309:	55D0  FE20    			cp #20
 310:	55D2  CC6860  			call z,SkipSpace
 311:	55D5  FE09    			cp #09
 312:	55D7  CC6860  			call z,SkipSpace
 313:	55DA  FE3B    			cp #3b
 314:	55DC  2805    			jr z,IB2
 315:	55DE  FE0D    			cp #0d
 316:	55E0  C27360  			jp nz,SkipStrC
 317:	55E3  CD7A60  	IB2		call SStrC2
 318:	55E6  E5      	IB2A		push hl
 319:	55E7  D5      			push de
 320:	55E8  215E66  			ld hl,IncludingBin
 321:	55EB  0E5C    			ld c,PChars
 322:	55ED  CD1248  			call DSS
 323:	55F0  21AE6B  			ld hl,DataBuf
 324:	55F3  E5      			push hl
 325:	55F4  CDC560  			call PrString
 326:	55F7  E1      			pop hl
 327:	55F8  3E01    			ld a,1
 328:	55FA  0E11    			ld c,Open
 329:	55FC  D7      			rst #10
 330:	55FD  DA5948  			jp c,ErrorDSS
 331:	5600  326969  			ld (OpenFile),a
 332:	5603  DD210000			ld ix,0
 333:	5607  210000  			ld hl,0
 334:	560A  0602    			ld b,2
 335:	560C  0E15    			ld c,Move_FP
 336:	560E  D7      			rst #10
 337:	560F  DA5948  			jp c,ErrorDSS
 338:	5612  44      			ld b,h
 339:	5613  4D      			ld c,l
 340:	5614  DDE5    			push ix
 341:	5616  E1      			pop hl
 342:	5617  D1      			pop de
 343:	5618  B7      			or a
 344:	5619  ED52    			sbc hl,de
 345:	561B  3008    			jr nc,IB3
 346:	561D  78      			ld a,b
 347:	561E  B1      			or c
 348:	561F  2003    			jr nz,IB3A
 349:	5621  60      			ld h,b
 350:	5622  69      			ld l,c
 351:	5623  03      			inc bc
 352:	5624  0B      	IB3A		dec bc
 353:	5625  DD62    	IB3		db #DD,#62
 354:	5627  DD6B    			db #DD,#6B
 355:	5629  FDE1    			pop iy
 356:	562B  D1      			pop de
 357:	562C  F1      			pop af
 358:	562D  FDE5    			push iy
 359:	562F  200F    			jr nz,IB4
 360:	5631  B7      			or a
 361:	5632  E5      			push hl
 362:	5633  ED52    			sbc hl,de
 363:	5635  E1      			pop hl
 364:	5636  3004    			jr nc,IB5
 365:	5638  78      			ld a,b
 366:	5639  B1      			or c
 367:	563A  2804    			jr z,IB4
 368:	563C  010000  	IB5		ld bc,0
 369:	563F  EB      			ex de,hl
 370:	5640  C5      	IB4		push bc
 371:	5641  E5      			push hl
 372:	5642  210000  			ld hl,0
 373:	5645  0600    			ld b,0
 374:	5647  3A6969  			ld a,(OpenFile)
 375:	564A  0E15    			ld c,Move_FP
 376:	564C  D7      			rst #10
 377:	564D  DA5948  			jp c,ErrorDSS
 378:	5650  D1      			pop de
 379:	5651  C1      			pop bc
 380:	5652  7B      			ld a,e
 381:	5653  B2      			or d
 382:	5654  2005    			jr nz,IB7
 383:	5656  79      			ld a,c
 384:	5657  B0      			or b
 385:	5658  CAD956  			jp z,IB14
 386:	565B  03      	IB7		inc bc
 387:	565C  2A9F69  			ld hl,(PCAddres)
 388:	565F  19      			add hl,de
 389:	5660  229F69  			ld (PCAddres),hl
 390:	5663  3A6A69  	IB13		ld a,(Pass)
 391:	5666  B7      			or a
 392:	5667  2868    			jr z,IB0
 393:	5669  C5      			push bc
 394:	566A  DBE2    			in a,(Page3)
 395:	566C  F5      			push af
 396:	566D  D5      			push de
 397:	566E  ED5B7F69			ld de,(SaveObjAdr)
 398:	5672  CBF2    			set 6,d
 399:	5674  ED4B6D69			ld bc,(OutFileID)
 400:	5678  05      			dec b
 401:	5679  79      	IB12		ld a,c
 402:	567A  D5      			push de
 403:	567B  0E3B    			ld c,SetWin3
 404:	567D  D7      			rst #10
 405:	567E  DA5948  			jp c,ErrorDSS
 406:	5681  210000  			ld hl,0
 407:	5684  B7      			or a
 408:	5685  C1      			pop bc
 409:	5686  ED42    			sbc hl,bc
 410:	5688  D1      			pop de
 411:	5689  EB      			ex  de,hl
 412:	568A  E5      			push hl
 413:	568B  7C      			ld a,h
 414:	568C  B5      			or l
 415:	568D  2004    			jr nz,IB9
 416:	568F  ED52    			sbc hl,de
 417:	5691  1804    			jr IB10
 418:	5693  ED52    	IB9		sbc hl,de
 419:	5695  3825    			jr c,IB11
 420:	5697  DDE1    	IB10		pop ix
 421:	5699  E5      			push hl
 422:	569A  60      			ld h,b
 423:	569B  69      			ld l,c
 424:	569C  3A6969  			ld a,(OpenFile)
 425:	569F  0E13    			ld c,Read_
 426:	56A1  D7      			rst #10
 427:	56A2  DA5948  			jp c,ErrorDSS
 428:	56A5  ED4B6D69			ld bc,(OutFileID)
 429:	56A9  C5      			push bc
 430:	56AA  04      			inc b
 431:	56AB  ED436D69			ld (OutFileID),bc
 432:	56AF  79      			ld a,c
 433:	56B0  0E3F    			ld c,SetMem
 434:	56B2  D7      			rst #10
 435:	56B3  DA5948  			jp c,ErrorDSS
 436:	56B6  C1      			pop bc
 437:	56B7  1100C0  			ld  de,#C000
 438:	56BA  18BD    			jr IB12
 439:	56BC  CBB4    	IB11		res 6,h
 440:	56BE  227F69  			ld (SaveObjAdr),hl
 441:	56C1  D1      			pop de
 442:	56C2  60      			ld h,b
 443:	56C3  69      			ld l,c
 444:	56C4  3A6969  			ld a,(OpenFile)
 445:	56C7  0E13    			ld c,Read_
 446:	56C9  D7      			rst #10
 447:	56CA  DA5948  			jp c,ErrorDSS
 448:	56CD  F1      			pop af
 449:	56CE  D3E2    			out (Page3),a
 450:	56D0  C1      			pop bc
 451:	56D1  110000  	IB0		ld de,0
 452:	56D4  0B      			dec bc
 453:	56D5  78      			ld a,b
 454:	56D6  B1      			or c
 455:	56D7  208A    			jr nz,IB13
 456:	56D9  3A6969  	IB14		ld a,(OpenFile)
 457:	56DC  0E12    			ld c,Close
 458:	56DE  D7      			rst #10
 459:	56DF  DA5948  			jp c,ErrorDSS
 460:	56E2  AF      			xor a
 461:	56E3  326969  			ld (OpenFile),a
 462:	56E6  E1      			pop hl
 463:	56E7  0600    			ld b,0
 464:	56E9  3E0D    			ld a,#0D
 465:	56EB  C9      			ret
**** orgasm.asm ****
1290:			                include "d_oprnd.asm"
**** d_oprnd.asm ****
   1:			;-----------------------------------------------------------------------------
   2:			;--		     Определение операндов мнемоник			    --
   3:			;-----------------------------------------------------------------------------
   4:			;Код операнда помещается в переменные Operand1 и Operand2
   5:			;и имеет следующие значения:
   6:			;#00 - нет операнда   #10 - DE		  #20 - (HL)
   7:			;#01 - A	      #11 - HL		  #21 - (IX)
   8:			;#02 - B	      #12 - SP		  #22 - (IX+n)
   9:			;#03 - C	      #13 - PO		  #23 - (IY)
  10:			;#04 - D	      #14 - NZ		  #24 - (IY+n)
  11:			;#05 - E	      #15 - PE		  #25 - (SP)
  12:			;#06 - H	      #16 - NC
  13:			;#07 - L	      #17 - IX
  14:			;#08 - I	      #18 - HX или XH
  15:			;#09 - R	      #19 - LX или XL
  16:			;#0A - M	      #1A - IY
  17:			;#0B - P	      #1B - HY или YH
  18:			;#0C - Z	      #1C - LY или YL
  19:			;#0D - AF	      #1D - (C)
  20:			;#0E - AF"	      #1E - (BC)	  #FE - (выражение)
  21:			;#0F - BC	      #1F - (DE)	  #FF - выражение
  22:			;
  23:			;Вход:		A  - первый символ операнда
  24:			;		HL - адрес следующего символа операнда
  25:			;Выход: A  - код символа, заканчивающий команду (";",":",#0D или ",")
  26:			;		HL - адрес следующего символа
  27:			; Operand1 - код первого операнда
  28:			; Operand2 - код второго операнда
  29:			;
  30:	56EC  FE20    	OperDetect	cp " "
  31:	56EE  CC6860  			call z,SkipSpace
  32:	56F1  FE09    			cp #09
  33:	56F3  CC6860  			call z,SkipSpace
  34:	56F6  FE0D    			cp #0d
  35:	56F8  C8      			ret z
  36:	56F9  FE3A    			cp ":"
  37:	56FB  C8      			ret z
  38:	56FC  FE3B    			cp ";"
  39:	56FE  C8      			ret z
  40:	56FF  CD5157  			call OD100	;определение первого операнда
  41:	5702  78      			ld a,b
  42:	5703  328B69  			ld (Operand1),a
  43:	5706  7E      			ld a,(hl)	;следующий за операндом символ
  44:	5707  23      			inc hl
  45:	5708  FE20    			cp " "
  46:	570A  CC6860  			call z,SkipSpace
  47:	570D  FE09    			cp #09
  48:	570F  CC6860  			call z,SkipSpace
  49:	5712  FE2C    			cp ","
  50:	5714  280E    			jr z,OD101	;ищем второй операнд
  51:	5716  FE0D    			cp #0d
  52:	5718  C8      			ret z
  53:	5719  FE3A    			cp ":"
  54:	571B  C8      			ret z
  55:	571C  FE3B    			cp ";"
  56:	571E  C8      			ret z
  57:	571F  0601    	OD10		ld b,SyntaxEr	;"Синтаксическая ошибка"
  58:	5721  C37360  			jp SkipStrC	;выход в головную программу
  59:			
  60:	5724  7E      	OD101		ld a,(hl)
  61:	5725  23      			inc hl
  62:	5726  FE20    			cp " "
  63:	5728  CC6860  			call z,SkipSpace
  64:	572B  FE09    			cp #09
  65:	572D  CC6860  			call z,SkipSpace
  66:	5730  CD5157  			call OD100
  67:	5733  78      			ld a,b
  68:	5734  328C69  			ld (Operand2),a
  69:	5737  7E      			ld a,(hl)	;следующий за операндом символ
  70:	5738  23      			inc hl
  71:	5739  FE20    			cp " "
  72:	573B  CC6860  			call z,SkipSpace
  73:	573E  FE09    			cp #09
  74:	5740  CC6860  			call z,SkipSpace
  75:	5743  FE0D    			cp #0d
  76:	5745  C8      			ret z
  77:	5746  FE3A    			cp ":"
  78:	5748  C8      			ret z
  79:	5749  FE3B    			cp ";"
  80:	574B  C8      			ret z
  81:	574C  0601    			ld b,SyntaxEr	;ошибка
  82:	574E  C37360  			jp SkipStrC
  83:			;
  84:			;Вход:		A  - первый символ операнда
  85:			;		HL - адрес следующего символа
  86:			;Выход: HL - адрес символа, идущего после операнда
  87:			;		B  - код определенного операнда
  88:			;
  89:	5751  5F      	OD100		ld e,a
  90:	5752  CD4A60  			call Letter	;символ - буква?
  91:	5755  381A    			jr c,OD1	;да - "C"
  92:			
  93:	5757  FE28    			cp "("		;операнд в скобках
  94:	5759  205C    			jr nz,ODVar
  95:	575B  7E      			ld a,(hl)
  96:	575C  23      			inc hl
  97:	575D  FE20    			cp " "		;пробел
  98:	575F  CC6860  			call z,SkipSpace
  99:	5762  FE09    			cp #09		;табуляция
 100:	5764  CC6860  			call z,SkipSpace
 101:	5767  2B      			dec hl
 102:	5768  CD4A60  			call Letter	;символ - буква?
 103:	576B  7B      			ld a,e
 104:	576C  3049    			jr nc,ODVar
 105:	576E  C3C658  			jp ODSkob	;да - "C"
 106:			
 107:	5771  7E      	OD1		ld a,(hl)	;смотрим следующий символ
 108:	5772  FE20    			cp " "		;операнд состоит из одного символа?
 109:	5774  CAEC57  			jp z,ODOne
 110:	5777  FE09    			cp #09
 111:	5779  CAEC57  			jp z,ODOne
 112:	577C  FE2C    			cp ","
 113:	577E  CAEC57  			jp z,ODOne
 114:	5781  FE0D    			cp #0d
 115:	5783  CAEC57  			jp z,ODOne
 116:	5786  FE3A    			cp ":"
 117:	5788  CAEC57  			jp z,ODOne
 118:	578B  FE3B    			cp ";"
 119:	578D  CAEC57  			jp z,ODOne
 120:			
 121:	5790  CD4A60  			call Letter	;символ - буква?
 122:	5793  3022    			jr nc,ODVar
 123:			
 124:	5795  47      			ld b,a
 125:	5796  23      			inc hl		;к 3-му символу операнда
 126:	5797  7E      			ld a,(hl)
 127:	5798  FE20    			cp " "		;операнд состоит из двух символов?
 128:	579A  CA1758  			jp z,ODTwo
 129:	579D  FE09    			cp #09
 130:	579F  CA1758  			jp z,ODTwo
 131:	57A2  FE2C    			cp ","
 132:	57A4  CA1758  			jp z,ODTwo
 133:	57A7  FE0D    			cp #0d
 134:	57A9  CA1758  			jp z,ODTwo
 135:	57AC  FE3A    			cp ":"
 136:	57AE  CA1758  			jp z,ODTwo
 137:	57B1  FE3B    			cp ";"
 138:	57B3  CA1758  			jp z,ODTwo
 139:			
 140:	57B6  2B      	OD4		dec hl
 141:			;
 142:			;Определение выражения
 143:			;Вход: E - первый символ выражения
 144:			;      HL - адрес следующего символа
 145:			;
 146:	57B7  7B      	ODVar		ld a,e
 147:	57B8  06FE    			ld b,#fe	;код выражения в скобках
 148:	57BA  FE28    			cp "("
 149:	57BC  2821    			jr z,ODV1
 150:	57BE  04      			inc b		;код выражения
 151:			
 152:	57BF  CD4A60  	ODV4		call Letter	;попытка определить забытую пару AF'
 153:	57C2  301B    			jr nc,ODV1
 154:	57C4  E6DF    			and #df
 155:	57C6  FE41    			cp "A"		;пара AF?
 156:	57C8  7B      			ld a,e
 157:	57C9  2014    			jr nz,ODV1
 158:	57CB  7E      			ld a,(hl)
 159:	57CC  23      			inc hl
 160:	57CD  E6DF    			and #df
 161:	57CF  FE46    			cp "F"
 162:	57D1  200A    			jr nz,ODV2
 163:	57D3  7E      			ld a,(hl)
 164:	57D4  23      			inc hl
 165:	57D5  FE27    			cp "'"
 166:	57D7  2003    			jr nz,ODV3
 167:	57D9  060E    			ld b,#0e	;код пары AF' 
 168:	57DB  C9      			ret
 169:			
 170:	57DC  2B      	ODV3		dec hl
 171:	57DD  7B      	ODV2		ld a,e
 172:	57DE  2B      			dec hl
 173:			
 174:			
 175:	57DF  CD515B  	ODV1		call GetVar	;расчет выражения
 176:	57E2  E5      			push hl
 177:	57E3  218D69  			ld hl,Var1
 178:	57E6  73      			ld (hl),e
 179:	57E7  23      			inc hl
 180:	57E8  72      			ld (hl),d
 181:	57E9  E1      			pop hl
 182:			
 183:	57EA  2B      			dec hl		;на символ, идущий после выражения
 184:	57EB  C9      			ret
 185:			;
 186:			;Определение односимвольного операнда
 187:			;Вход: E  - символ операнда
 188:			;Выход: B  - значение операнда
 189:			;      HL - адрес символа, идущего после операнда
 190:			;      при ошибке переходим на поиск переменной
 191:			;
 192:	57EC  7B      	ODOne		ld a,e
 193:	57ED  E6DF    			and #df		;переводим в верхний регистр
 194:	57EF  FE46    			cp "F"		;проверка диапазона "A"..."E"
 195:	57F1  3004    			jr nc,ODO2
 196:			
 197:	57F3  D640    			sub #40		;вычисляем номер регистра
 198:	57F5  47      			ld b,a
 199:	57F6  C9      			ret
 200:			
 201:	57F7  0606    	ODO2		ld b,#06
 202:	57F9  FE48    			cp "H"		;регистр H?
 203:	57FB  C8      			ret z
 204:			
 205:	57FC  04      			inc b
 206:	57FD  FE4C    			cp "L"		;регистр L?
 207:	57FF  C8      			ret z
 208:			
 209:	5800  04      			inc b
 210:	5801  FE49    			cp "I"		;регистр I?
 211:	5803  C8      			ret z
 212:			
 213:	5804  04      			inc b
 214:	5805  FE52    			cp "R"		;регистр R?
 215:	5807  C8      			ret z
 216:			
 217:	5808  04      			inc b
 218:	5809  FE4D    			cp "M"		;флаг M?
 219:	580B  C8      			ret z
 220:			
 221:	580C  04      			inc b
 222:	580D  FE50    			cp "P"		;флаг P?
 223:	580F  C8      			ret z
 224:			
 225:	5810  04      			inc b
 226:	5811  FE5A    			cp "Z"		;флаг Z?
 227:	5813  C8      			ret z
 228:			
 229:	5814  C3B757  			jp ODVar	;попытка определить переменную
 230:			;
 231:			;Определение двухсимвольного операнда
 232:			;Вход:		B  - второй символ операнда
 233:			;		E  - первый символ олеранда
 234:			;		HL - адрес следующего символа
 235:			;Выход: B  - значение операнда
 236:			;		HL - адрес символа, идущего после операнда
 237:			;      при ошибке переходим на поиск переменной
 238:			;
 239:	5817  7B      	ODTwo		ld a,e
 240:	5818  E6DF    			and #df		;переводим в верхний регистр 1-ый символ
 241:	581A  57      			ld d,a
 242:	581B  78      			ld a,b
 243:	581C  E6DF    			and #df		;переводим в верхний регистр 2-ой символ
 244:	581E  060D    			ld b,#0d	;код пары AF
 245:			
 246:	5820  FE46    			cp "F"		;пара AF?
 247:	5822  2007    			jr nz,ODT1
 248:	5824  7A      			ld a,d
 249:	5825  FE41    			cp "A"
 250:	5827  C8      			ret z
 251:			
 252:	5828  C3B657  			jp OD4
 253:			
 254:	582B  04      	ODT1		inc b
 255:	582C  04      			inc b
 256:	582D  FE43    			cp "C"		;пара BC?
 257:	582F  200C    			jr nz,ODT2
 258:	5831  7A      			ld a,d
 259:	5832  FE42    			cp "B"
 260:	5834  C8      			ret z
 261:			
 262:	5835  0616    			ld b,#16
 263:	5837  FE4E    			cp "N"		;флаг NC?
 264:	5839  C8      			ret z
 265:			
 266:	583A  C3B657  			jp OD4
 267:			
 268:	583D  04      	ODT2		inc b
 269:	583E  FE45    			cp "E"		;пара DE?
 270:	5840  200C    			jr nz,ODT3
 271:	5842  7A      			ld a,d
 272:	5843  FE44    			cp "D"
 273:	5845  C8      			ret z
 274:			
 275:	5846  0615    			ld b,#15
 276:	5848  FE50    			cp "P"		;флаг PE?
 277:	584A  C8      			ret z
 278:			
 279:	584B  C3B657  			jp OD4
 280:			
 281:	584E  04      	ODT3		inc b
 282:	584F  FE4C    			cp "L"		;пара HL?
 283:	5851  2011    			jr nz,ODT4
 284:	5853  7A      			ld a,d
 285:	5854  FE48    			cp "H"
 286:	5856  C8      			ret z
 287:			
 288:	5857  0619    			ld b,#19
 289:	5859  FE58    			cp "X"		;регистр XL?
 290:	585B  C8      			ret z
 291:			
 292:	585C  061C    			ld b,#1c
 293:	585E  FE59    			cp "Y"		;регистр YL?
 294:	5860  C8      			ret z
 295:			
 296:	5861  C3B657  			jp OD4
 297:			
 298:	5864  04      	ODT4		inc b
 299:	5865  FE50    			cp "P"		;пара SP?
 300:	5867  2007    			jr nz,ODT6
 301:	5869  7A      			ld a,d
 302:	586A  FE53    			cp "S"
 303:	586C  C8      			ret z
 304:			
 305:	586D  C3B657  			jp OD4
 306:			
 307:	5870  04      	ODT6		inc b
 308:	5871  FE4F    			cp "O"		;флаг PO?
 309:	5873  2007    			jr nz,ODT7
 310:	5875  7A      			ld a,d
 311:	5876  FE50    			cp "P"
 312:	5878  C8      			ret z
 313:			
 314:	5879  C3B657  			jp OD4
 315:			
 316:	587C  04      	ODT7		inc b
 317:	587D  FE5A    			cp "Z"		;флаг NZ?
 318:	587F  2007    			jr nz,ODT8
 319:	5881  7A      			ld a,d
 320:	5882  FE4E    			cp "N"
 321:	5884  C8      			ret z
 322:			
 323:	5885  C3B657  			jp OD4
 324:			
 325:	5888  04      	ODT8		inc b
 326:	5889  04      			inc b
 327:	588A  04      			inc b
 328:	588B  FE58    			cp "X"		;пара IX?
 329:	588D  200F    			jr nz,ODT9
 330:	588F  7A      			ld a,d
 331:	5890  FE49    			cp "I"
 332:	5892  C8      			ret z
 333:			
 334:	5893  04      			inc b
 335:	5894  FE48    			cp "H"		;регистр HX?
 336:	5896  C8      			ret z
 337:			
 338:	5897  04      			inc b
 339:	5898  FE4C    			cp "L"		;регистр LX?
 340:	589A  C8      			ret z
 341:			
 342:	589B  C3B657  			jp OD4
 343:			
 344:	589E  061A    	ODT9		ld b,#1A
 345:	58A0  FE59    			cp "Y"		;пара IY?
 346:	58A2  200F    			jr nz,ODT10
 347:	58A4  7A      			ld a,d
 348:	58A5  FE49    			cp "I"
 349:	58A7  C8      			ret z
 350:			
 351:	58A8  04      			inc b
 352:	58A9  FE48    			cp "H"		;регистр HY?
 353:	58AB  C8      			ret z
 354:			
 355:	58AC  04      			inc b
 356:	58AD  FE4C    			cp "L"		;регистр LY?
 357:	58AF  C8      			ret z
 358:			
 359:	58B0  C3B657  			jp OD4
 360:			
 361:	58B3  0618    	ODT10		ld b,#18
 362:	58B5  FE48    			cp "H"		;регистр XH?
 363:	58B7  C2B657  			jp nz,OD4
 364:	58BA  7A      			ld a,d
 365:	58BB  FE58    			cp "X"
 366:	58BD  C8      			ret z
 367:			
 368:	58BE  061B    			ld b,#1b
 369:	58C0  FE59    			cp "Y"		;регистр YH?
 370:	58C2  C8      			ret z
 371:			
 372:	58C3  C3B657  			jp OD4
 373:			;
 374:			;Определение операнда в скобках
 375:			;Вход:		A  - первый символ операнда "("
 376:			;		E  -	 - " -
 377:			;		HL - адрес следующего символа
 378:			;Выход: B  - значение операнда
 379:			;      при ошибке переходим на поиск переменной
 380:			;
 381:	58C6  E5      	ODSkob		push hl		;сохраняем адрес в строке
 382:	58C7  061D    			ld b,#1d
 383:			
 384:	58C9  7E      			ld a,(hl)
 385:	58CA  23      			inc hl
 386:	58CB  E6DF    			and #df		;переводим в верхний регистр 1-ый символ
 387:	58CD  57      			ld d,a
 388:	58CE  FE43    			cp "C"		;(C ?
 389:	58D0  7E      			ld a,(hl)	;смотрим следующий символ
 390:	58D1  2010    			jr nz,ODS1
 391:	58D3  23      			inc hl
 392:	58D4  FE20    			cp " "		;пробел
 393:	58D6  CC6860  			call z,SkipSpace
 394:	58D9  FE09    			cp #09		;табуляция
 395:	58DB  CC6860  			call z,SkipSpace
 396:	58DE  2B      			dec hl
 397:	58DF  FE29    			cp ")"		;(C) ?
 398:	58E1  2865    			jr z,ODSEx	;выход из процедуры
 399:			
 400:	58E3  CD4A60  	ODS1		call Letter	;2-ой символ буква?
 401:	58E6  304A    			jr nc,ODSEx1
 402:			
 403:	58E8  E6DF    			and #df		;переводим в верхний регистр 2-ый символ
 404:			
 405:	58EA  04      			inc b
 406:	58EB  FE43    			cp "C"
 407:	58ED  2007    			jr nz,ODS2
 408:	58EF  7A      			ld a,d
 409:	58F0  FE42    			cp "B"		;(BC ?
 410:	58F2  2842    			jr z,ODS10
 411:	58F4  183C    			jr ODSEx1
 412:			
 413:	58F6  04      	ODS2		inc b
 414:	58F7  FE45    			cp "E"
 415:	58F9  2007    			jr nz,ODS3
 416:	58FB  7A      			ld a,d
 417:	58FC  FE44    			cp "D"		;(DE ?
 418:	58FE  2836    			jr z,ODS10
 419:	5900  1830    			jr ODSEx1
 420:			
 421:	5902  04      	ODS3		inc b
 422:	5903  FE4C    			cp "L"
 423:	5905  2007    			jr nz,ODS5
 424:	5907  7A      			ld a,d
 425:	5908  FE48    			cp "H"		;(HL ?
 426:	590A  282A    			jr z,ODS10
 427:	590C  1824    			jr ODSEx1
 428:			
 429:	590E  04      	ODS5		inc b
 430:	590F  FE58    			cp "X"
 431:	5911  2007    			jr nz,ODS6
 432:	5913  7A      			ld a,d
 433:	5914  FE49    			cp "I"		;(IX ?
 434:	5916  2833    			jr z,ODS100
 435:	5918  1818    			jr ODSEx1
 436:			
 437:	591A  04      	ODS6		inc b
 438:	591B  04      			inc b
 439:	591C  FE59    			cp "Y"
 440:	591E  2007    			jr nz,ODS4
 441:	5920  7A      			ld a,d
 442:	5921  FE49    			cp "I"		;(IY ?
 443:	5923  2826    			jr z,ODS100
 444:	5925  180B    			jr ODSEx1
 445:			
 446:	5927  04      	ODS4		inc b
 447:	5928  04      			inc b
 448:	5929  FE50    			cp "P"
 449:	592B  2005    			jr nz,ODSEx1
 450:	592D  7A      			ld a,d
 451:	592E  FE53    			cp "S"		;(SP ?
 452:	5930  2804    			jr z,ODS10
 453:			
 454:	5932  E1      	ODSEx1		pop hl
 455:	5933  C3B757  			jp ODVar	;попытка определить переменную
 456:			
 457:	5936  23      	ODS10		inc hl
 458:	5937  7E      			ld a,(hl)
 459:	5938  23      			inc hl
 460:	5939  FE20    			cp " "		;пробел
 461:	593B  CC6860  			call z,SkipSpace
 462:	593E  FE09    			cp #09		;табуляция
 463:	5940  CC6860  			call z,SkipSpace
 464:	5943  2B      			dec hl
 465:	5944  FE29    			cp ")"		;проверка наличия закрывающейся скобки
 466:	5946  20EA    			jr nz,ODSEx1
 467:			
 468:	5948  D1      	ODSEx		pop de
 469:	5949  23      			inc hl
 470:	594A  C9      			ret
 471:			
 472:	594B  23      	ODS100		inc hl
 473:	594C  7E      			ld a,(hl)
 474:	594D  23      			inc hl
 475:	594E  FE20    			cp " "		;пробел
 476:	5950  CC6860  			call z,SkipSpace
 477:	5953  FE09    			cp #09		;табуляция
 478:	5955  CC6860  			call z,SkipSpace
 479:	5958  2B      			dec hl
 480:	5959  4F      			ld c,a
 481:	595A  FE29    			cp ")"		;(IX) или (IY) ?
 482:	595C  28EA    			jr z,ODSEx
 483:	595E  FE2D    			cp "-"		;(IX- или (IY- ?
 484:	5960  2804    			jr z,ODS101
 485:	5962  FE2B    			cp "+"		;(IX+ или (IY+ ?
 486:	5964  20CC    			jr nz,ODSEx1	;неопределен
 487:			
 488:	5966  04      	ODS101		inc b
 489:	5967  3E28    			ld a,"("
 490:	5969  23      			inc hl
 491:	596A  CD515B  			call GetVar
 492:	596D  08      			ex af,af' ;'
 493:	596E  79      			ld a,c
 494:	596F  FE2B    			cp "+"
 495:	5971  2803    			jr z,ODS102
 496:			
 497:	5973  AF      			xor a
 498:	5974  93      			sub e
 499:	5975  5F      			ld e,a
 500:	5976  7B      	ODS102		ld a,e
 501:	5977  328F69  			ld (Var2),a
 502:	597A  08      			ex af,af' ;'
 503:	597B  D1      			pop de
 504:	597C  2B      			dec hl
 505:	597D  C9      			ret
 506:			
**** orgasm.asm ****
1291:			                include "d_label.asm"
**** d_label.asm ****
   1:			;-----------------------------------------------------------------------------
   2:			;--			  Процедуры обработки меток			    --
   3:			;-----------------------------------------------------------------------------
   4:			;  Таблица меток построена следующим образом:
   5:			; - метки расположены по возрастанию символов
   6:			; - каждая метка в таблице занимает от 4 до 255 байт
   7:			;    1 байт	- длина записи в таблице
   8:			;    1-252 байт - имя метки
   9:			;    2 байта	- значение метки
  10:			; - байт #00 является признаком конца таблицы
  11:			;
  12:			;-- Сканирование метки --
  13:			;конец метки определяется:
  14:			;  по символу табуляции, пробелу, ":", ";" или символам конца строки
  15:			;Вход:		HL - адрес второго символа метки
  16:			;		A  - первый символ метки
  17:			;Выход: HL - адрес первого символа после метки
  18:			;
  19:			; процедура ScanLabel была полностью изменена в v0.2X
  20:	597E  0601    	ScanLabel	ld     b,1
  21:	5980  1802    			jr     ScanLabel2
  22:	5982  0600    	ScanLabel1	ld     b,0
  23:			
  24:	5984  11B069  	ScanLabel2	ld     de,WordBuf
  25:	5987  0EFC    			ld     c,#FC
  26:	5989  FE2E    			cp     "."
  27:	598B  2813    			jr     z,SL11
  28:	598D  FE40    			cp     "@"
  29:	598F  2027    			jr     nz,SL9
  30:	5991  7E      			ld     a, (hl)
  31:	5992  23      			inc    hl
  32:	5993  FE5F    			cp     "_"
  33:	5995  2805    			jr     z,SL7
  34:	5997  CD4A60  			call   Letter
  35:	599A  3025    			jr     nc,SL10
  36:	599C  CBFF    	SL7		set    7, a
  37:	599E  1826    			jr     SL5
  38:	59A0  E5      	SL11		push   hl
  39:	59A1  21AF6A  			ld     hl,SomeBuf ; новый буфер добавленный в v0.2X
  40:	59A4  7E      	SL8		ld     a, (hl)
  41:	59A5  B7      			or     a
  42:	59A6  2806    			jr     z,SL6
  43:	59A8  12      			ld     (de), a
  44:	59A9  13      			inc    de
  45:	59AA  23      			inc    hl
  46:	59AB  0D      			dec    c
  47:	59AC  18F6    			jr     SL8
  48:	59AE  3E2E    	SL6		ld     a,"."
  49:	59B0  12      			ld     (de), a
  50:	59B1  13      			inc    de
  51:	59B2  0D      			dec    c
  52:	59B3  E1      			pop    hl
  53:	59B4  7E      			ld     a, (hl)
  54:	59B5  23      			inc    hl
  55:	59B6  0602    			ld     b,2
  56:	59B8  FE5F    	SL9		cp     "_"
  57:	59BA  280A    			jr     z,SL5
  58:	59BC  CD4A60  			call   Letter
  59:	59BF  3805    			jr     c,SL5
  60:	59C1  0602    	SL10		ld     b,2
  61:	59C3  C37360  			jp     SkipStrC
  62:	59C6  0D      	SL5		dec    c
  63:	59C7  0C      			inc    c
  64:	59C8  2803    			jr     z,SL4
  65:	59CA  0D      			dec    c
  66:	59CB  12      			ld     (de), a
  67:	59CC  13      			inc    de
  68:	59CD  7E      	SL4		ld     a, (hl)
  69:	59CE  23      			inc    hl
  70:	59CF  FE5F    			cp     "_"
  71:	59D1  28F3    			jr     z,SL5
  72:	59D3  CD4A60  			call   Letter
  73:	59D6  38EE    			jr     c,SL5
  74:	59D8  CD5860  			call   Numeric
  75:	59DB  38E9    			jr     c,SL5
  76:	59DD  FE2E    			cp     "."
  77:	59DF  2008    			jr     nz,SL3
  78:	59E1  CB48    			bit    1,b
  79:	59E3  2004    			jr     nz,SL3
  80:	59E5  0602    			ld     b,2
  81:	59E7  18DD    			jr     SL5
  82:	59E9  F5      	SL3		push   af
  83:	59EA  AF      			xor    a
  84:	59EB  12      			ld     (de), a
  85:	59EC  CB40    			bit    0, b
  86:	59EE  2811    			jr     z,SL1
  87:	59F0  E5      			push   hl
  88:	59F1  21B069  			ld     hl,WordBuf
  89:	59F4  11AF6A  			ld     de,SomeBuf ; новый буфер добавленный в v0.2X
  90:	59F7  D5      			push   de
  91:	59F8  01FF00  			ld     bc,255
  92:	59FB  EDB0    			ldir
  93:	59FD  E1      			pop    hl
  94:	59FE  CBBE    			res    7,(hl)
  95:	5A00  E1      			pop    hl
  96:	5A01  F1      	SL1		pop    af
  97:	5A02  C9      			ret
  98:			;
  99:			;-- Занесение метки в таблицу меток --
 100:			;
 101:			;Метка должна находиться в буфере WordBuf и заканчиваться #00
 102:			;При занесении метки возможно возникновение двух ошибок
 103:			;
 104:	5A03  E5      	NewLabel	push hl		;адрес в строке
 105:	5A04  F5      			push af		;текущий символ
 106:	5A05  CD5F60  			call CapsLetter
 107:	5A08  FE45    			cp "E"
 108:	5A0A  204F    			jr nz,NL5
 109:	5A0C  7E      			ld a,(hl)	;следующий символ
 110:	5A0D  23      			inc hl
 111:	5A0E  CD5F60  			call CapsLetter
 112:	5A11  FE51    			cp "Q"
 113:	5A13  2046    			jr nz,NL5
 114:	5A15  7E      			ld a,(hl)	;следующий символ
 115:	5A16  23      			inc hl
 116:	5A17  CD5F60  			call CapsLetter
 117:	5A1A  FE55    			cp "U"
 118:	5A1C  203D    			jr nz,NL5
 119:	5A1E  7E      			ld a,(hl)	;следующий символ
 120:	5A1F  23      			inc hl
 121:	5A20  FE09    			cp #09		;табуляция
 122:	5A22  2804    			jr z,$+6
 123:	5A24  FE20    			cp " "		;пробел
 124:	5A26  2033    			jr nz,NL5
 125:					
 126:	5A28  E5      			push hl
 127:	5A29  21B069  			ld hl,WordBuf	;спрятать метку из буфера
 128:	5A2C  11AE6B  			ld de,DataBuf
 129:	5A2F  01FF00  			ld bc,255
 130:	5A32  EDB0    			ldir
 131:	5A34  E1      			pop hl
 132:	5A35  CD905B  			call GetVar2
 133:			
 134:	5A38  E5      			push hl
 135:	5A39  D5      			push de
 136:	5A3A  21AE6B  			ld hl,DataBuf	;востановить метку из буфера
 137:	5A3D  11B069  			ld de,WordBuf
 138:	5A40  01FF00  			ld bc,255
 139:	5A43  EDB0    			ldir
 140:	5A45  D1      			pop de
 141:	5A46  E1      			pop hl
 142:					
 143:	5A47  FE3A    			cp ":"
 144:	5A49  200C    			jr nz,NL11
 145:	5A4B  7E      			ld a,(hl)
 146:	5A4C  23      			inc hl
 147:	5A4D  FE09    			cp #09		;табуляция
 148:	5A4F  CC6860  			call z,SkipSpace
 149:	5A52  FE20    			cp #20		;пробел
 150:	5A54  CC6860  			call z,SkipSpace
 151:	5A57  C1      	NL11		pop bc
 152:	5A58  C1      			pop bc
 153:	5A59  1806    			jr NL6
 154:			
 155:	5A5B  ED5B9F69	NL5		ld de,(PCAddres)
 156:	5A5F  F1      			pop af
 157:	5A60  E1      			pop hl
 158:	5A61  ED539B69	NL6		ld (LabelVar),de
 159:	5A65  D9      			exx		;прячем основной набор регистров
 160:	5A66  08      			ex af,af' ;'
 161:	5A67  CDE05A  			call SearchLabel;ищем метку в таблице
 162:	5A6A  FA745A  			jp m,NL0
 163:			
 164:	5A6D  D9      			exx		;возвращаем основной набор регистров
 165:	5A6E  08      			ex af,af' ;'
 166:	5A6F  0603    			ld b,LabelAlrEr ;ошибка "Повторная метка"
 167:	5A71  C37360  			jp SkipStrC	;выход по ошибке
 168:			
 169:	5A74  DBC2    	NL0		in a,(Page2)	;номер страницы вкл. во 2-е окно
 170:	5A76  F5      			push af
 171:	5A77  DBE2    			in a,(Page3)	;номер страницы вкл. в 3-е окно
 172:	5A79  F5      			push af
 173:	5A7A  E5      			push hl
 174:			;		 ld hl,(MemID)
 175:			;		 ld a,(hl)
 176:	5A7B  3A6F69  			ld a,(MapLabelID)
 177:			;		 inc hl
 178:	5A7E  0600    			ld b,0		;номер 1-ой логической страницы
 179:	5A80  4F      			ld c,a
 180:	5A81  C5      			push bc
 181:			
 182:	5A82  0E3A    			ld c,SetWin2
 183:			;		 rst #10
 184:			;		 jp c,Error
 185:	5A84  CD1248  			call DSS
 186:			;		 ld c,EMM_Fn4
 187:			;		 call BIOS	 ;вычисление физического номера страницы
 188:			;		 out (#c2),a	 ;вкл. ее во 2-е окно
 189:	5A87  C1      			pop bc
 190:	5A88  79      			ld a,c
 191:	5A89  04      			inc b
 192:			
 193:	5A8A  0E3B    			ld c,SetWin3
 194:			;		 rst #10
 195:			;		 jp c,Error
 196:	5A8C  CD1248  			call DSS
 197:			;		 ld c,EMM_Fn4
 198:			;		 call BIOS	 ;вычисление физического номера страницы
 199:			;		 out (#e2),a	 ;вкл. ее в 3-е окно
 200:			
 201:	5A8F  E1      			pop hl		;адрес вставки метки
 202:	5A90  E5      			push hl
 203:	5A91  E5      			push hl
 204:			
 205:	5A92  1600    			ld d,0
 206:	5A94  7E      	NL1		ld a,(hl)	;поиск конца таблицы меток
 207:	5A95  B7      			or a
 208:	5A96  2804    			jr z,NL10
 209:	5A98  5F      			ld e,a
 210:	5A99  19      			add hl,de	;к следующей метке
 211:	5A9A  18F8    			jr NL1
 212:			
 213:	5A9C  D1      	NL10		pop de
 214:			;		 push de	 ;адрес вставки
 215:	5A9D  E5      			push hl
 216:	5A9E  E5      			push hl		;конец таблицы меток
 217:	5A9F  B7      			or a
 218:	5AA0  ED52    			sbc hl,de
 219:	5AA2  23      			inc hl		;длина перемещаемого блока
 220:	5AA3  E5      			push hl
 221:			
 222:	5AA4  21B069  			ld hl,WordBuf	;вычисляем длину метки из буфера
 223:	5AA7  01FF00  			ld bc,#00ff
 224:	5AAA  AF      			xor a
 225:	5AAB  EDB1    			cpir		;поиск конца метки в буфере	 
 226:	5AAD  03      			inc bc
 227:	5AAE  91      			sub c		;в A длина метки
 228:	5AAF  3C      			inc a		;увеличиваем длину метки
 229:	5AB0  3C      			inc a		;1 байт - длина метки
 230:			;		 inc a		 ;2 байта - значение метки
 231:	5AB1  5F      			ld e,a
 232:	5AB2  50      			ld d,b
 233:			
 234:	5AB3  C1      			pop bc
 235:			
 236:			
 237:			;		 ld de,#00ff	 ;вычисляем длину метки из буфера
 238:			;		 ld hl,WordBuf	 ;начало новой метки
 239:			;NL2		 ld a,(hl)	 ;очередной байт из буфера
 240:			;		 inc e
 241:			;		 inc hl
 242:			;		 or a
 243:			;		 jr nz,NL2
 244:			;		 inc e		 ;увеличиваем длину метки
 245:			;		 inc e		 ;1 байт - длина метки
 246:			;		 inc e		 ;2 байта - значение метки
 247:			
 248:	5AB4  E1      			pop hl
 249:			;		 CALL Debug
 250:	5AB5  19      			add hl,de	;куда переносим блок
 251:	5AB6  D1      			pop de
 252:	5AB7  3007    			jr nc,NL3	;переход через #0000 (переполнение таблицы)
 253:			;		 ld a,(EndLabel) ;старший байт max адреса таблицы меток
 254:			;		 cp h
 255:			;		 ld a,c		 ;длина вставляемой записи
 256:			;NL4		 ;pop de
 257:			;		 jr nc,NL3	 ;переполнения нет
 258:			
 259:	5AB9  D9      			exx
 260:	5ABA  08      			ex af,af' ;'
 261:	5ABB  068F    			ld b,LabelTabEr ;ошибка "Переполнение таблицы меток"
 262:	5ABD  C37360  			jp SkipStrC
 263:			
 264:	5AC0  EB      	NL3		ex de,hl	;hl-откуда, de-куда, bc-сколько
 265:			;		 CALL Debug
 266:	5AC1  EDB8    			lddr		;раздвигаем таблицу меток
 267:			
 268:	5AC3  E1      			pop hl
 269:	5AC4  77      			ld (hl),a	;заносим длину метки
 270:	5AC5  D603    			sub 3
 271:	5AC7  4F      			ld c,a		;кол-во переносимых из буфера символов
 272:	5AC8  23      			inc hl
 273:	5AC9  EB      			ex de,hl
 274:	5ACA  21B069  			ld hl,WordBuf
 275:			;		 CALL Debug
 276:	5ACD  EDB0    			ldir		;переносим метку из буфера
 277:			;		 push de
 278:	5ACF  EB      			ex de,hl
 279:	5AD0  ED5B9B69			ld de,(LabelVar);значение метки
 280:			;		 CALL Debug
 281:	5AD4  73      			ld (hl),e
 282:	5AD5  23      			inc hl
 283:	5AD6  72      			ld (hl),d
 284:			;		 pop de 
 285:			;		 or a		 ;сброс флага "C"
 286:	5AD7  F1      			pop af
 287:	5AD8  D3E2    			out (Page3),a	;востановили банку в 3-eм окне
 288:	5ADA  F1      			pop af
 289:	5ADB  D3C2    			out (Page2),a	;востановили банку во 2-ом окне
 290:	5ADD  D9      			exx
 291:	5ADE  08      			ex af,af' ;'
 292:	5ADF  C9      			ret
 293:			;
 294:			;-- Поиск метки в таблице меток --
 295:			;
 296:			;Имя метки должно быть в буфере WordBuf
 297:			;Таблица меток начинается с адреса TabLabel
 298:			;Если переменная CapsLabel = #ff, то регистр символов не различается
 299:			;результат:
 300:			; "M" - не найдена, HL - адрес вставки метки в таблицу
 301:			; "P" - найдена,    HL - адрес метки в таблице
 302:			;		    DE - значение метки
 303:			;
 304:	5AE0  DBC2    	SearchLabel	in a,(Page2)	;номер страницы вкл. во 2-е окно
 305:	5AE2  F5      			push af
 306:	5AE3  DBE2    			in a,(Page3)	;номер страницы вкл. в 3-е окно
 307:	5AE5  F5      			push af
 308:			;		 ld hl,(MemID)
 309:			;		 ld a,(hl)
 310:	5AE6  3A6F69  			ld a,(MapLabelID)
 311:			;		 inc hl
 312:	5AE9  0600    			ld b,0		;номер 1-ой логической страницы
 313:	5AEB  4F      			ld c,a
 314:	5AEC  C5      			push bc
 315:			
 316:	5AED  0E3A    			ld c,SetWin2
 317:			;		 rst #10
 318:			;		 jp c,Error
 319:	5AEF  CD1248  			call DSS
 320:			
 321:			;		 ld c,EMM_Fn4
 322:			;		 call BIOS	 ;вычисление физического номера страницы
 323:			;		 out (#c2),a	 ;вкл. ее во 2-е окно
 324:	5AF2  C1      			pop bc
 325:	5AF3  79      			ld a,c
 326:	5AF4  04      			inc b
 327:			
 328:	5AF5  0E3B    			ld c,SetWin3
 329:			;		 rst #10
 330:			;		 jp c,Error
 331:	5AF7  CD1248  			call DSS
 332:			;		 ld c,EMM_Fn4
 333:			;		 call BIOS	 ;вычисление физического номера страницы
 334:			;		 out (#e2),a	 ;вкл. ее в 3-е окно
 335:			
 336:	5AFA  210080  			ld hl,TabLabel	;адрес начала таблицы меток
 337:	5AFD  7E      	SrL1		ld a,(hl)
 338:	5AFE  3D      			dec a		;конец таблицы?
 339:	5AFF  F20B5B  			jp p,SrL6
 340:	5B02  F1      	SrL7		pop af
 341:	5B03  D3E2    			out (Page3),a	;востановили банку в 3-eм окне
 342:	5B05  F1      			pop af
 343:	5B06  D3C2    			out (Page2),a	;востановили банку во 2-ом окне
 344:	5B08  AF      			xor a
 345:	5B09  3D      			dec a
 346:	5B0A  C9      			ret
 347:			
 348:	5B0B  E5      	SrL6		push hl
 349:	5B0C  47      			ld b,a
 350:	5B0D  04      			inc b		;длина записи в таблице меток
 351:	5B0E  3D      			dec a
 352:	5B0F  3D      			dec a		;длина метки
 353:	5B10  4F      			ld c,a
 354:	5B11  23      			inc hl
 355:	5B12  11B069  			ld de,WordBuf
 356:	5B15  C5      	SrL2		push bc
 357:	5B16  46      			ld b,(hl)	;символ метки
 358:	5B17  CBB8    			res 7,b ;добавлено в v0.2X
 359:	5B19  3A7369  			ld a,(CapsLabel)
 360:	5B1C  3C      			inc a
 361:	5B1D  1A      			ld a,(de)
 362:	5B1E  CBBF    			res 7,a ;добавлено в v0.2X
 363:	5B20  200A    			jr nz,SrL5
 364:	5B22  4F      			ld c,a
 365:	5B23  78      			ld a,b
 366:	5B24  CD5F60  			call CapsLetter
 367:	5B27  47      			ld b,a
 368:	5B28  79      			ld a,c
 369:	5B29  CD5F60  			call CapsLetter
 370:	5B2C  B8      	SrL5		cp b
 371:	5B2D  C1      			pop bc
 372:	5B2E  280A    			jr z,SrL3
 373:	5B30  E1      			pop hl
 374:	5B31  FA025B  			jp m,SrL7
 375:	5B34  48      	SrL4		ld c,b
 376:	5B35  0600    			ld b,0		;в BC длина записи в таблице
 377:	5B37  09      			add hl,bc	;к следующей метке
 378:	5B38  18C3    			jr SrL1
 379:	5B3A  13      	SrL3		inc de
 380:	5B3B  23      			inc hl
 381:	5B3C  0D      			dec c
 382:	5B3D  20D6    			jr nz,SrL2	;все символы метки из таблицы?
 383:			;		 pop hl
 384:	5B3F  1A      			ld a,(de)	;следующий символ из буфера метки
 385:	5B40  EB      			ex de,hl
 386:	5B41  E1      			pop hl
 387:	5B42  B7      			or a		;конец метки в буфере?
 388:			;		 ret z		 ;метка найдена
 389:	5B43  20EF    			jr nz,SrL4	;продолжаем поиск
 390:	5B45  EB      			ex de,hl
 391:	5B46  5E      			ld e,(hl)	;младший байт значения метки
 392:	5B47  23      			inc hl
 393:	5B48  56      			ld d,(hl)	;старший байт значения метки
 394:	5B49  F1      			pop af
 395:	5B4A  D3E2    			out (Page3),a	;востановили банку в 3-eм окне
 396:	5B4C  F1      			pop af
 397:	5B4D  D3C2    			out (Page2),a	;востановили банку во 2-ом окне
 398:	5B4F  AF      			xor a
 399:	5B50  C9      			ret
 400:			
**** orgasm.asm ****
1292:			                include "calc.asm"
**** calc.asm ****
   1:			;-----------------------------------------------------------------------------
   2:			;--                              Калькулятор                                --
   3:			;--                    Расчет 16-ти битных выражений                        --
   4:			;--      с использованием метода трансляции в обратную польскую запись      --
   5:			;-----------------------------------------------------------------------------
   6:			;Поддерживаются следующие операции (от высшего приоритета к низшему):
   7:			;  одноместные операции (наивысший приоритет):
   8:			; "!"  - логическое отрицание a=0 -> a=1; a<>0 -> a=0
   9:			; "^"  - побитное инвертирование
  10:			; "-"  - унарный минус
  11:			; "+"  - унарный плюс
  12:			; "++" - инкремент a=a+1
  13:			; "--" - декремент a=a-1
  14:			; "<"  - младший байт числа
  15:			; ">"  - старший байт числа
  16:			; "?"  - метка определена -> 1 ; не определена -> 0
  17:			;  двуместные операции
  18:			; "<<" - циклический сдвиг влево
  19:			; ">>" - циклический сдвиг вправо
  20:			;
  21:			; "*"  - умножение
  22:			; "/"  - деление
  23:			; "\"  - остаток от деления
  24:			;
  25:			; "+"  - сложение
  26:			; "-"  - вычитание
  27:			;
  28:			; "<"  - меньше
  29:			; "="  - равно
  30:			; ">"  - больше
  31:			; "<=" - меньше или равно
  32:			; "<>" - не равно
  33:			; ">=" - больше или равно
  34:			;
  35:			; "!"  - побитный XOR
  36:			; "&"  - побитный AND
  37:			; "|"  - побитный OR
  38:			;
  39:			;Для изменения порядка расчета выражения используются скобки ()
  40:			;
  41:			;Вход  A  - первый символ выражения
  42:			;      HL - адрес следующего символа выражения
  43:			;Выход DE - значение выражения
  44:			;      A  - символ, на котором закончилось выражение
  45:			;      HL - адрес следующего символа строки
  46:			;
  47:	5B51  C5      	GetVar          push bc
  48:	5B52  47      	                ld b,a
  49:	5B53  3A6A69  	                ld a,(Pass)     ;номер прохода компилятора
  50:	5B56  3C      	                inc a
  51:	5B57  2839    	                jr z,GV2        ;на 2-ом проходе производим расчет выражений,
  52:	5B59  0E00    	                ld c,0
  53:	5B5B  78      	                ld a,b          ;иначе пропускаем выражение
  54:	5B5C  FE27    	GV3             cp #27          ;'   ;'
  55:	5B5E  2822    	                jr z,GV5
  56:	5B60  FE22    	                cp #22          ;"   ;"
  57:	5B62  281E    	                jr z,GV5
  58:	5B64  FE2C    	                cp ","
  59:	5B66  2810    	                jr z,GV6
  60:	5B68  FE3A    	                cp ":"
  61:	5B6A  280C    	                jr z,GV6
  62:	5B6C  FE3B    	                cp ";"
  63:	5B6E  2808    	                jr z,GV6
  64:	5B70  FE0D    	                cp #0d
  65:	5B72  2808    	                jr z,GV4
  66:	5B74  7E      	GV7             ld a,(hl)       ;следующий символ
  67:	5B75  23      	                inc hl
  68:	5B76  18E4    	                jr GV3
  69:			
  70:	5B78  0C      	GV6             inc c
  71:	5B79  0D      	                dec c
  72:	5B7A  20F8    	                jr nz,GV7
  73:	5B7C  ED5B9F69	GV4             ld de,(PCAddres);текущий программный адрес
  74:			;                ld e,0
  75:	5B80  C1      	                pop bc
  76:	5B81  C9      	                ret
  77:			
  78:	5B82  0C      	GV5             inc c
  79:	5B83  0D      	                dec c
  80:	5B84  2003    	                jr nz,GV8
  81:	5B86  4F      	                ld c,a
  82:	5B87  18EB    	                jr GV7
  83:	5B89  B9      	GV8             cp c
  84:	5B8A  20E8    	                jr nz,GV7
  85:	5B8C  0E00    	                ld c,0
  86:	5B8E  18E4    	                jr GV7
  87:			;
  88:			;Принудительный вызов калькулятора на первом проходе
  89:			;
  90:	5B90  C5      	GetVar2         push bc
  91:	5B91  47      	                ld b,a
  92:			;
  93:			;Собственно сам калькулятор
  94:			;
  95:	5B92  AF      	GV2             xor a
  96:	5B93  329069  	                ld (SPOp),a     ;инициализация стеков операций
  97:	5B96  329169  	                ld (SPNum),a    ;и переменных
  98:	5B99  78      	                ld a,b
  99:			
 100:	5B9A  119A5B  	GV1             ld de,GV1       ;адрес возврата после вычислений
 101:	5B9D  D5      	                push de         ;на стек
 102:	5B9E  FE20    	                cp " "          ;закончили на пробеле?
 103:	5BA0  CC6860  	                call z,SkipSpace
 104:	5BA3  FE09    	                cp #09          ;.. табуляции?
 105:	5BA5  CC6860  	                call z,SkipSpace
 106:	5BA8  0601    	                ld b,1          ;приоритет (
 107:	5BAA  FE28    	                cp "("          ;открывающаяся скобка
 108:	5BAC  CAD75D  	                jp z,PushOp     ;в стек операций
 109:	5BAF  D1      	                pop de          ;восстанавливаем вершину стека
 110:			
 111:	5BB0  FE3F    	                cp "?"          ;операция определения наличия метки в таблице
 112:	5BB2  CAFE5B  	                jp z,WheLabel
 113:	5BB5  FE5F    	                cp "_"          ;поиск метки
 114:	5BB7  CAEE5B  	                jp z,SearchLab
 115:	5BBA  FE2E    	                cp "."          ;поиск метки (заменено на точку в v0.2X)
 116:	5BBC  CAEE5B  	                jp z,SearchLab
 117:	5BBF  CD4A60  	                call Letter     ;символ - буква?
 118:	5BC2  DAEE5B  	                jp c,SearchLab   ;поиск метки
 119:	5BC5  CD5860  	                call Numeric    ;символ - цифра?
 120:	5BC8  DA365C  	                jp c,NumDec     ;dec число
 121:	5BCB  FE23    	                cp "#"          ;hex число?
 122:	5BCD  CAAF5C  	                jp z,NumHex
 123:	5BD0  FE25    	                cp "%"          ;bin число?
 124:	5BD2  CAE45C  	                jp z,NumBin
 125:	5BD5  FE27    	                cp "'"          ;строка?
 126:	5BD7  CA1E5C  	                jp z,Char
 127:	5BDA  FE22    	                cp '"'          ;строка?
 128:	5BDC  CA1E5C  	                jp z,Char
 129:	5BDF  FE24    	                cp "$"          ;значение программного счетчика
 130:	5BE1  CAE75B  	                jp z,PCVar
 131:	5BE4  C3AB5D  	                jp OneOperation
 132:			
 133:			;Получение значения программного счетчика
 134:	5BE7  EB      	PCVar           ex de,hl
 135:	5BE8  2A9F69  	                ld hl,(PCAddres)
 136:	5BEB  C3085D  	                jp NextVar
 137:			
 138:			;Получение значения метки
 139:	5BEE  CD8259  	SearchLab       call ScanLabel1
 140:	5BF1  E5      	                push hl
 141:	5BF2  CDE05A  	                call SearchLabel
 142:	5BF5  E1      	                pop hl
 143:	5BF6  FA0A60  	                jp m,CalcEr5
 144:	5BF9  2B      	                dec hl
 145:	5BFA  EB      	                ex de,hl
 146:	5BFB  C3085D  	                jp NextVar
 147:			
 148:			;Операция "?Label"
 149:	5BFE  7E      	WheLabel        ld a,(hl)       ;следующий символ
 150:	5BFF  23      	                inc hl
 151:	5C00  FE20    	                cp " "          ;пробел?
 152:	5C02  CC6860  	                call z,SkipSpace
 153:	5C05  FE09    	                cp #09          ;табуляция?
 154:	5C07  CC6860  	                call z,SkipSpace
 155:	5C0A  CD8259  	                call ScanLabel1
 156:	5C0D  E5      	                push hl
 157:	5C0E  CDE05A  	                call SearchLabel
 158:	5C11  E1      	                pop hl
 159:	5C12  2B      	                dec hl
 160:	5C13  EB      	                ex de,hl
 161:	5C14  210000  	                ld hl,#0000
 162:	5C17  FA1B5C  	                jp m,$+4
 163:	5C1A  23      	                inc hl
 164:	5C1B  C3085D  	                jp NextVar
 165:			
 166:			;Получение CHAR числа
 167:	5C1E  47      	Char            ld b,a          ; ' или "
 168:	5C1F  EB      	                ex de,hl
 169:	5C20  210000  	                ld hl,#0000
 170:	5C23  1A      	Ch1             ld a,(de)
 171:	5C24  FE0D    	                cp #0d          ;обнаружен конец строки без конечных ковычек
 172:	5C26  CA325C  	                jp z,Ch2
 173:	5C29  B8      	                cp b
 174:	5C2A  CA075D  	                jp z,NextVarInc
 175:	5C2D  65      	                ld h,l
 176:	5C2E  6F      	                ld l,a
 177:	5C2F  13      	                inc de
 178:	5C30  18F1    	                jr Ch1
 179:	5C32  EB      	Ch2             ex de,hl
 180:	5C33  C30E60  	                jp CalcEr
 181:			
 182:			;Получение DEC числа
 183:			;Сначала определяется возможность записи:
 184:			;HEX числа - 0h...0FFFFh
 185:			;BIN числа - 0b...1111111111111111b
 186:	5C36  54      	NumDec          ld d,h
 187:	5C37  5D      	                ld e,l
 188:	5C38  1B      	                dec de
 189:			
 190:	5C39  FE30    	                cp "0"
 191:	5C3B  2026    	                jr nz,ND5
 192:	5C3D  7E      	                ld a,(hl)
 193:	5C3E  CD5F60  	                call CapsLetter
 194:	5C41  FE58    	                cp "X"
 195:	5C43  2867    	                jr z,NumHex1
 196:	5C45  FE42    	                cp "B"
 197:	5C47  201B    	                jr nz,ND7
 198:	5C49  23      	ND2             inc hl
 199:	5C4A  7E      	                ld a,(hl)       ;следующий символ
 200:	5C4B  CD5860  	                call Numeric    ;цифра?
 201:	5C4E  38F9    	                jr c,ND2
 202:	5C50  CD5F60  	                call CapsLetter ;лат.буквы в верхний регистр
 203:	5C53  FE48    	                cp "H"          ;HEX число
 204:	5C55  2859    	                jr z,NumHex+1
 205:	5C57  FE41    	                cp "A"
 206:	5C59  DADF5C  	                jp c,NumBin1
 207:	5C5C  FE47    	                cp "G"
 208:	5C5E  D2DF5C  	                jp nc,NumBin1
 209:	5C61  62      	                ld h,d
 210:	5C62  6B      	                ld l,e
 211:	5C63  7E      	ND5             ld a,(hl)
 212:	5C64  23      	ND7             inc hl
 213:	5C65  CD5860  	                call Numeric
 214:	5C68  38F9    	                jr c,ND5
 215:	5C6A  CD5F60  	                call CapsLetter
 216:	5C6D  FE48    	                cp "H"
 217:	5C6F  283F    	                jr z,NumHex+1 ;HEX число
 218:	5C71  FE41    	                cp "A"
 219:	5C73  381F    	                jr c,NumDec1
 220:	5C75  FE47    	                cp "G"
 221:	5C77  301B    	                jr nc,NumDec1
 222:	5C79  FE42    	                cp "B"
 223:	5C7B  20E6    	                jr nz,ND5
 224:	5C7D  7E      	ND6             ld a,(hl)
 225:	5C7E  CD5860  	                call Numeric
 226:	5C81  38E0    	                jr c,ND5
 227:	5C83  CD5F60  	                call CapsLetter
 228:	5C86  FE48    	                cp "H"          ;HEX число?
 229:	5C88  2826    	                jr z,NumHex+1
 230:	5C8A  FE47    	                cp "G"
 231:	5C8C  3057    	                jr nc,NumBin+1  ;BIN число!
 232:	5C8E  FE41    	                cp "A"
 233:	5C90  3853    	                jr c,NumBin+1   ;BIN число!
 234:	5C92  18CF    	                jr ND5
 235:			
 236:	5C94  210000  	NumDec1         ld hl,#0000     ;получение DEC - числа
 237:	5C97  1A      	ND1             ld a,(de)
 238:	5C98  CD5860  	                call Numeric    ;цифра?
 239:	5C9B  306B    	                jr nc,NextVar   ;выход если нет
 240:	5C9D  4D      	                ld c,l
 241:	5C9E  44      	                ld b,h
 242:	5C9F  29      	                add hl,hl       ;*10
 243:	5CA0  29      	                add hl,hl
 244:	5CA1  09      	                add hl,bc
 245:	5CA2  29      	                add hl,hl
 246:	5CA3  0600    	                ld b,0
 247:	5CA5  D630    	                sub #30
 248:	5CA7  4F      	                ld c,a
 249:	5CA8  09      	                add hl,bc
 250:	5CA9  13      	                inc de
 251:	5CAA  18EB    	                jr ND1
 252:			
 253:			;Получение HEX числа
 254:	5CAC  3E23    	NumHex1         ld a,"#" ;добавлено в v0.2X
 255:	5CAE  23      	                inc hl   ;добавлено в v0.2X
 256:	5CAF  EB      	NumHex          ex de,hl
 257:	5CB0  47      	                ld b,a          ;символ, на котором попали в процедуру
 258:	5CB1  210000  	                ld hl,#0000
 259:	5CB4  1A      	NH2             ld a,(de)
 260:	5CB5  CD5860  	                call Numeric    ;цифра?
 261:	5CB8  380D    	                jr c,NH1
 262:	5CBA  CD5F60  	                call CapsLetter ;лат.буквы в верхний регистр
 263:	5CBD  FE47    	                cp "G"
 264:	5CBF  3011    	                jr nc,ExNumHex  ;выход
 265:	5CC1  FE41    	                cp "A"
 266:	5CC3  380D    	                jr c,ExNumHex   ;выход
 267:			
 268:	5CC5  D607    	                sub #07
 269:	5CC7  D630    	NH1             sub #30
 270:	5CC9  29      	                add hl,hl       ;*16
 271:	5CCA  29      	                add hl,hl
 272:	5CCB  29      	                add hl,hl
 273:	5CCC  29      	                add hl,hl
 274:	5CCD  B5      	                or l
 275:	5CCE  6F      	                ld l,a
 276:	5CCF  13      	                inc de
 277:			;                inc c
 278:	5CD0  18E2    	                jr NH2
 279:			
 280:	5CD2  FE48    	ExNumHex        cp "H"
 281:	5CD4  2032    	                jr nz,NextVar
 282:	5CD6  78      	                ld a,b
 283:	5CD7  FE23    	                cp "#"
 284:	5CD9  202C    	                jr nz,NextVarInc
 285:	5CDB  EB      	                ex de,hl
 286:	5CDC  C30E60  	                jp CalcEr
 287:			
 288:			;Получение BIN числа
 289:	5CDF  3E25    	NumBin1         ld a,"%" ;добавлено в v0.2X
 290:	5CE1  EB      	                ex de,hl
 291:	5CE2  23      	                inc hl
 292:	5CE3  23      	                inc hl
 293:	5CE4  EB      	NumBin          ex de,hl
 294:	5CE5  47      	                ld b,a          ;символ, на котором попали в процедуру
 295:	5CE6  210000  	                ld hl,#00000
 296:	5CE9  1A      	NB1             ld a,(de)
 297:	5CEA  D630    	                sub #30
 298:	5CEC  CB3F    	                srl a
 299:	5CEE  2007    	                jr nz,ExNumBin
 300:	5CF0  CB15    	                rl l
 301:	5CF2  CB14    	                rl h
 302:	5CF4  13      	                inc de
 303:			;                inc c
 304:	5CF5  18F2    	                jr NB1
 305:			
 306:	5CF7  1A      	ExNumBin        ld a,(de)       ;символ, на котором вышли из процеуры
 307:	5CF8  CD5F60  	                call CapsLetter ;лат.буквы в верхний регистр
 308:	5CFB  FE42    	                cp "B"
 309:	5CFD  2009    	                jr nz,NextVar
 310:	5CFF  78      	                ld a,b
 311:	5D00  EB      	                ex de,hl
 312:	5D01  FE25    	                cp "%"
 313:	5D03  CA0E60  	                jp z,CalcEr
 314:	5D06  EB      	                ex de,hl
 315:			
 316:	5D07  13      	NextVarInc      inc de
 317:	5D08  3A9169  	NextVar         ld a,(SPNum)    ;вершина стека
 318:	5D0B  C602    	                add a,2
 319:	5D0D  CA1260  	                jp z,CalcEr1    ;переполнение стека переменных
 320:	5D10  329169  	                ld (SPNum),a
 321:	5D13  D5      	                push de
 322:	5D14  E5      	                push hl
 323:	5D15  21AB6D  	                ld hl,StackNum
 324:	5D18  1600    	                ld d,0
 325:	5D1A  D602    	                sub 2
 326:	5D1C  5F      	                ld e,a
 327:	5D1D  19      	                add hl,de
 328:	5D1E  D1      	                pop de          ;полученное число
 329:	5D1F  73      	                ld (hl),e
 330:	5D20  23      	                inc hl
 331:	5D21  72      	                ld (hl),d
 332:	5D22  E1      	                pop hl
 333:			
 334:	5D23  7E      	NV1             ld a,(hl)
 335:	5D24  23      	                inc hl
 336:			;                inc c
 337:	5D25  11235D  	                ld de,NV1       ;возврат после вычисления в ()
 338:	5D28  D5      	                push de         ;на стек
 339:	5D29  FE20    	                cp " "          ;закончили на пробеле?
 340:	5D2B  CC6860  	                call z,SkipSpace
 341:	5D2E  FE09    	                cp #09          ;.. табуляции?
 342:	5D30  CC6860  	                call z,SkipSpace
 343:	5D33  FE29    	                cp ")"
 344:	5D35  CAF55D  	                jp z,PopOp1     ;вычисление выражения в ()
 345:	5D38  D1      	                pop de          ;восстанавливаем стек
 346:	5D39  FE0D    	                cp #0d
 347:	5D3B  CAEC5F  	                jp z,ExitVar
 348:	5D3E  FE3A    	                cp ":"          ;закончили на разделителе команд?
 349:	5D40  CAEC5F  	                jp z,ExitVar
 350:	5D43  FE2C    	                cp ","          ;.. разделителе операндов?
 351:	5D45  CAEC5F  	                jp z,ExitVar
 352:	5D48  FE3B    	                cp ";"          ;.. комментарии?
 353:	5D4A  CAEC5F  	                jp z,ExitVar
 354:			;                jp TwoOperation
 355:			;
 356:			;Поиск двуместной операции и занесение ее в стек опреаций
 357:			;Вход:          A - символ операции
 358:			;
 359:	5D4D  4F      	TwoOperation    ld c,a
 360:	5D4E  7E      	                ld a,(hl)       ;следующий символ
 361:	5D4F  FE3D    	                cp "="          ;проверка возможных двухсимвольных
 362:	5D51  281A    	                jr z,TO1        ;операций сравнения и сдвигов
 363:	5D53  FE3C    	                cp "<"
 364:	5D55  282A    	                jr z,TO2
 365:	5D57  FE3E    	                cp ">"
 366:	5D59  2030    	                jr nz,TO3
 367:			
 368:	5D5B  79      	                ld a,c
 369:	5D5C  0604    	                ld b,#04
 370:	5D5E  FE3C    	                cp "<"          ;не равно
 371:	5D60  2806    	                jr z,TO01
 372:	5D62  0607    	                ld b,#07
 373:	5D64  FE3E    	                cp ">"          ;сдвиг вправо
 374:	5D66  2023    	                jr nz,TO3
 375:	5D68  C6BE    	TO01            add a,#BE ; #80+">" ;второй символ двойной операции
 376:	5D6A  23      	                inc hl
 377:			;                inc c
 378:	5D6B  182D    	                jr TO5
 379:			
 380:	5D6D  79      	TO1             ld a,c
 381:	5D6E  FE3C    	                cp "<"          ;меньше или равно
 382:	5D70  2808    	                jr z,TO11
 383:	5D72  FE3E    	                cp ">"          ;больше или равно
 384:	5D74  2804    	                jr z,TO11
 385:	5D76  FE21    	                cp "!"          ;добавлено в v0.2X
 386:	5D78  2011    	                jr nz,TO3
 387:	5D7A  C6BD    	TO11            add a,#BD       ;изменено в v0.2X
 388:	5D7C  0604    	                ld b,#04        ;приоритет
 389:	5D7E  23      	                inc hl
 390:			;                inc c
 391:	5D7F  1819    	                jr TO5
 392:			
 393:	5D81  B9      	TO2             cp c            ;сдвиг влево
 394:	5D82  2007    	                jr nz,TO3
 395:	5D84  C6BC    	                add a,#BC       ;изменено в v0.2X
 396:	5D86  0607    	                ld b,#07        ;приоритет
 397:	5D88  23      	                inc hl
 398:			;                inc c
 399:	5D89  180F    	                jr TO5
 400:			
 401:	5D8B  E5      	TO3             push hl
 402:			;                ld a,c
 403:	5D8C  213060  	                ld hl,TblTwoOp-1;таблица двуместных односимвольных операций
 404:	5D8F  23      	TO4             inc hl
 405:	5D90  7E      	                ld a,(hl)       ;символ операции
 406:	5D91  23      	                inc hl
 407:	5D92  B7      	                or a
 408:	5D93  2810    	                jr z,TO6
 409:	5D95  B9      	                cp c
 410:	5D96  20F7    	                jr nz,TO4
 411:	5D98  46      	                ld b,(hl)       ;приоритет операции
 412:	5D99  E1      	                pop hl
 413:			
 414:	5D9A  F5      	TO5             push af
 415:	5D9B  CDF75D  	                call PopOp      ;проверить стек операций
 416:	5D9E  F1      	                pop af
 417:	5D9F  CDD75D  	                call PushOp     ;затолкнуть ее в стек
 418:	5DA2  C39A5B  	                jp GV1          ;продолжить разбор строки
 419:			
 420:	5DA5  E1      	TO6             pop hl
 421:	5DA6  060B    	                ld b,InvalidExp ;"Ошибка в выражении"
 422:	5DA8  C37360  	                jp SkipStrC
 423:			;
 424:			;Поиск одноместной операции и занесение ее в стек опреаций
 425:			;Вход:          A - символ операции
 426:			;
 427:	5DAB  4F      	OneOperation    ld c,a
 428:	5DAC  7E      	                ld a,(hl)       ;следующий символ
 429:	5DAD  FE2B    	                cp "+"          ;проверка возможных двухсимвольных
 430:	5DAF  2804    	                jr z,OO3        ;операций сравнения и сдвигов
 431:	5DB1  FE2D    	                cp "-"
 432:	5DB3  2009    	                jr nz,OO5
 433:			
 434:	5DB5  B9      	OO3             cp c            ;декремент / инкремент
 435:	5DB6  2006    	                jr nz,OO5
 436:	5DB8  87      	                add a,a         ;второй символ двойной операции
 437:	5DB9  C680    	                add a,#80       ;добавлено в v0.2X
 438:	5DBB  23      	                inc hl
 439:	5DBC  180D    	                jr OO4
 440:			
 441:	5DBE  E5      	OO5             push hl
 442:	5DBF  212960  	                ld hl,TblOneOp-1;таблица одноместных операций
 443:			;                ld b,a
 444:	5DC2  23      	OO1             inc hl
 445:	5DC3  7E      	                ld a,(hl)       ;очередная операция из таблицы
 446:	5DC4  B7      	                or a            ;проверка на достижение конца таблицы
 447:	5DC5  280C    	                jr z,OO2
 448:	5DC7  B9      	                cp c
 449:	5DC8  20F8    	                jr nz,OO1
 450:	5DCA  E1      	                pop hl
 451:	5DCB  06FF    	OO4             ld b,#ff        ;приоритет одноместной опреации
 452:	5DCD  CDD75D  	                call PushOp     ;поместить операцию на стек
 453:	5DD0  C39A5B  	                jp GV1          ;продолжить разбор строки
 454:			
 455:	5DD3  E1      	OO2             pop hl
 456:	5DD4  C30E60  	                jp CalcEr
 457:			;
 458:			;Занесение на стек операции и ее приоритета
 459:			;Вход:          A - символ операции
 460:			;               B - приоритет
 461:			;
 462:	5DD7          	PushOp          ;ex af,af'
 463:	5DD7  4F      	                ld c,a
 464:	5DD8  3A9069  	                ld a,(SPOp)     ;вершина стека операций
 465:	5DDB  C602    	                add a,2
 466:	5DDD  CA1260  	                jp z,CalcEr1    ;переполнение стека
 467:	5DE0  329069  	                ld (SPOp),a
 468:	5DE3  E5      	                push hl
 469:	5DE4  21AD6C  	                ld hl,StackOp
 470:	5DE7  1600    	                ld d,0
 471:	5DE9  D602    	                sub 2
 472:	5DEB  5F      	                ld e,a
 473:	5DEC  19      	                add hl,de
 474:			;                ex af,af'
 475:	5DED  71      	                ld (hl),c
 476:	5DEE  23      	                inc hl
 477:	5DEF  70      	                ld (hl),b
 478:	5DF0  E1      	                pop hl
 479:	5DF1  7E      	                ld a,(hl)
 480:	5DF2  23      	                inc hl
 481:	5DF3  0C      	                inc c
 482:	5DF4  C9      	                ret
 483:			;
 484:			;Выталкивание из стека операций и вычисление полученных выражений
 485:			;Вход:          B - приоритет операции
 486:			;
 487:	5DF5  0601    	PopOp1          ld b,#01        ;приоритет )
 488:	5DF7  3A9069  	PopOp           ld a,(SPOp)     ;вершина стека операций
 489:	5DFA  B7      	                or a            ;на стеке нет операций
 490:	5DFB  2006    	                jr nz,PpOp8     ;нечего выталкивать
 491:	5DFD  05      	                dec b
 492:	5DFE  CA1660  	                jp z,CalcEr2    ;ошибка в выражении, нет (
 493:	5E01  04      	                inc b
 494:	5E02  C9      	                ret
 495:			
 496:	5E03  E5      	PpOp8           push hl
 497:	5E04  21AD6C  	                ld hl,StackOp
 498:	5E07  1600    	                ld d,0
 499:	5E09  5F      	                ld e,a
 500:	5E0A  19      	                add hl,de       ;адрес вершины стека
 501:	5E0B  D1      	                pop de
 502:	5E0C  EB      	                ex de,hl
 503:	5E0D          	PpOp3           ;ex af,af'
 504:	5E0D  4F      	                ld c,a
 505:	5E0E  1B      	                dec de
 506:	5E0F  1A      	                ld a,(de)       ;приоритет предыдущей операции
 507:	5E10  1B      	                dec de
 508:	5E11  B8      	                cp b            ;сравнить приоритеты
 509:	5E12  3009    	                jr nc,PpOp4     ;вытолкнуть операцию и произвести вычисление
 510:	5E14  FE01    	                cp #01          ;встретили (
 511:	5E16  C8      	                ret z           ;выход
 512:			                ;ex af,af'
 513:	5E17  79      	                ld a,c
 514:	5E18  D602    	                sub 2
 515:	5E1A  20F1    	                jr nz,PpOp3     ;стек еще не пуст
 516:			
 517:			;                ld a,b
 518:			;                dec b           ;1-ый приоритет, искали (
 519:			;                jp z,CalcEr2    ;и не нашли!
 520:	5E1C  C9      	                ret
 521:			
 522:	5E1D  E5      	PpOp4           push hl         ;адрес следующего символа в строке
 523:	5E1E  C5      	                push bc         ;B - приоритет, C - кол-во операций на стеке
 524:	5E1F  D5      	                push de         ;адрес текущей операции в стеке операций
 525:	5E20  EB      	                ex de,hl
 526:	5E21  5E      	                ld e,(hl)       ;операция
 527:	5E22  57      	                ld d,a          ;приоритет
 528:	5E23  D5      	                push de         ;операция и приоритет вычисляемой операции
 529:	5E24  54      	                ld d,h
 530:	5E25  5D      	                ld e,l
 531:	5E26  3A9069  	                ld a,(SPOp)
 532:	5E29  D602    	                sub #02
 533:	5E2B  329069  	                ld (SPOp),a
 534:	5E2E  2F      	                cpl
 535:	5E2F  D603    	                sub #03
 536:	5E31  4F      	                ld c,a
 537:	5E32  0600    	                ld b,#00
 538:	5E34  23      	                inc hl
 539:	5E35  23      	                inc hl
 540:	5E36  EDB0    	                ldir            ;выталкиваем операцию из стека
 541:			
 542:	5E38  D1      	                pop de
 543:	5E39  7A      	                ld a,d          ;приоритет
 544:	5E3A  3D      	                dec a
 545:	5E3B  2004    	                jr nz,PpOp7
 546:			
 547:	5E3D  D1      	                pop de          ;выход, если вычислили выражение в ()
 548:	5E3E  C1      	                pop bc
 549:	5E3F  E1      	                pop hl
 550:	5E40  C9      	                ret
 551:			
 552:	5E41  3A9169  	PpOp7           ld a,(SPNum)
 553:	5E44  B7      	                or a
 554:	5E45  CA0E60  	                jp z,CalcEr     ;ошибка, если стек операндов пуст
 555:	5E48  4F      	                ld c,a
 556:	5E49  0600    	                ld b,#00
 557:	5E4B  21AB6D  	                ld hl,StackNum
 558:	5E4E  09      	                add hl,bc
 559:			
 560:	5E4F  01725E  	                ld bc,PpOp5     ;адрес возврата после вычислений
 561:	5E52  C5      	                push bc         ;на стек его, возврат производим по RET
 562:			
 563:	5E53  7B      	                ld a,e          ;восстанавили в A символ операции
 564:	5E54  42      	                ld b,d          ;и в B приоритет
 565:	5E55  2B      	                dec hl
 566:	5E56  56      	                ld d,(hl)
 567:	5E57  2B      	                dec hl
 568:	5E58  5E      	                ld e,(hl)       ;в DE операнд
 569:	5E59  04      	                inc b           ;операция одноместная?
 570:	5E5A  CAA35F  	                jp z,OneValue
 571:			
 572:	5E5D  2B      	                dec hl          ;к следующему операнду
 573:	5E5E  4F      	                ld c,a
 574:	5E5F  3A9169  	                ld a,(SPNum)
 575:	5E62  D602    	                sub 2
 576:	5E64  CA0E60  	                jp z,CalcEr     ;ошибка, если стек операндов пуст
 577:	5E67  329169  	                ld (SPNum),a
 578:	5E6A  79      	                ld a,c
 579:	5E6B  4E      	                ld c,(hl)
 580:	5E6C  2B      	                dec hl
 581:	5E6D  6E      	                ld l,(hl)
 582:	5E6E  61      	                ld h,c          ;в HL первый операнд
 583:	5E6F  C3905E  	                jp TwoValue
 584:			
 585:	5E72  3A9169  	PpOp5           ld a,(SPNum)    ;возврат после вычислений
 586:	5E75  D602    	                sub 2
 587:	5E77  4F      	                ld c,a          ;результат заносим в стек операндов
 588:	5E78  0600    	                ld b,#00
 589:	5E7A  EB      	                ex de,hl
 590:	5E7B  21AB6D  	                ld hl,StackNum
 591:	5E7E  09      	                add hl,bc
 592:	5E7F  73      	                ld (hl),e       ;мл.байт результата
 593:	5E80  23      	                inc hl
 594:	5E81  72      	                ld (hl),d       ;ст.байт результата
 595:	5E82  D1      	                pop de
 596:	5E83  C1      	                pop bc
 597:	5E84  E1      	                pop hl
 598:			;                ex af,af'       ;указатель вершины стека операций
 599:			;                sub 2
 600:			;                ld (SPOp),a
 601:	5E85  79      	                ld a,c
 602:	5E86  D602    	                sub 2
 603:			;                ld a,(SPOp)
 604:			;                or a
 605:	5E88  C20D5E  	                jp nz,PpOp3     ;продолжить просмотр стека операций
 606:	5E8B  05      	                dec b           ;1-ый приоритет, искали (
 607:	5E8C  CA1660  	                jp z,CalcEr2    ;и не нашли!
 608:	5E8F  C9      	                ret
 609:			;
 610:			;Вычисление двуместных операций
 611:			;Вход:          HL - первый операнд
 612:			;               DE - второй операнд
 613:			;               A  - операция
 614:			;Выход: HL - результат
 615:			;
 616:	5E90  FE2B    	TwoValue        cp "+"          ;сложение
 617:	5E92  2002    	                jr nz,TV1
 618:	5E94  19      	                add hl,de
 619:	5E95  C9      	                ret
 620:			
 621:	5E96  FE2D    	TV1             cp "-"          ;вычитание
 622:	5E98  2004    	                jr nz,TV2
 623:	5E9A  B7      	                or a
 624:	5E9B  ED52    	                sbc hl,de
 625:	5E9D  C9      	                ret
 626:			
 627:	5E9E  FE2A    	TV2             cp "*"          ;умножение
 628:	5EA0  2018    	                jr nz,TV3
 629:	5EA2  C5      	                push bc
 630:	5EA3  44      	                ld b,h
 631:	5EA4  4D      	                ld c,l
 632:	5EA5  210000  	                ld hl,#0000
 633:	5EA8  3E10    	                ld a,#10
 634:	5EAA  CB18    	MultLp          rr b
 635:	5EAC  CB19    	                rr c
 636:	5EAE  3001    	                jr nc,$+3
 637:	5EB0  19      	                add hl,de
 638:	5EB1  CB23    	                sla e
 639:	5EB3  CB12    	                rl d
 640:	5EB5  3D      	                dec a
 641:	5EB6  20F2    	                jr nz,MultLp
 642:	5EB8  C1      	                pop bc
 643:	5EB9  C9      	                ret
 644:			
 645:	5EBA  FE2F    	TV3             cp '/'          ;деление
 646:	5EBC  CA745F  	                jp z,Divide
 647:			
 648:	5EBF  FE5C    	                cp '\'          ;остаток от деление
 649:	5EC1  2804    	                jr z,TV4
 650:	5EC3  FE25    	                cp "%"          ;добавлено в v0.2X
 651:	5EC5  2005    	                jr nz,TV5
 652:	5EC7  CD745F  	TV4             call Divide
 653:	5ECA  EB      	                ex de,hl
 654:	5ECB  C9      	                ret
 655:			
 656:	5ECC  FE21    	TV5             cp "!"          ;XOR
 657:	5ECE  2007    	                jr nz,TV6
 658:	5ED0  7D      	                ld a,l
 659:	5ED1  AB      	                xor e
 660:	5ED2  6F      	                ld l,a
 661:	5ED3  7C      	                ld a,h
 662:	5ED4  AA      	                xor d
 663:	5ED5  67      	                ld h,a
 664:	5ED6  C9      	                ret
 665:			
 666:	5ED7  FE26    	TV6             cp "&"          ;AND
 667:	5ED9  2007    	                jr nz,TV7
 668:	5EDB  7D      	                ld a,l
 669:	5EDC  A3      	                and e
 670:	5EDD  6F      	                ld l,a
 671:	5EDE  7C      	                ld a,h
 672:	5EDF  A2      	                and d
 673:	5EE0  67      	                ld h,a
 674:	5EE1  C9      	                ret
 675:			
 676:	5EE2  FE7C    	TV7             cp "|"          ;OR
 677:	5EE4  2007    	                jr nz,TV8
 678:	5EE6  7D      	                ld a,l
 679:	5EE7  B3      	                or e
 680:	5EE8  6F      	                ld l,a
 681:	5EE9  7C      	                ld a,h
 682:	5EEA  B2      	                or d
 683:	5EEB  67      	                ld h,a
 684:	5EEC  C9      	                ret
 685:			
 686:	5EED  FE3C    	TV8             cp "<"          ;меньше
 687:	5EEF  2012    	                jr nz,TV9
 688:	5EF1  7A      	                ld a,d
 689:	5EF2  BC      	                cp h
 690:	5EF3  380A    	                jr c,Falsh
 691:	5EF5  2004    	                jr nz,True
 692:	5EF7  7D      	                ld a,l
 693:	5EF8  BB      	                cp e
 694:	5EF9  3004    	                jr nc,Falsh
 695:	5EFB  210100  	True            ld hl,#0001
 696:	5EFE  C9      	                ret
 697:	5EFF  210000  	Falsh           ld hl,#0000
 698:	5F02  C9      	                ret
 699:			
 700:	5F03  FE3D    	TV9             cp "="          ;равно
 701:	5F05  200A    	                jr nz,TV10
 702:	5F07  7A      	                ld a,d
 703:	5F08  BC      	                cp h
 704:	5F09  20F4    	                jr nz,Falsh
 705:	5F0B  7D      	                ld a,l
 706:	5F0C  BB      	                cp e
 707:	5F0D  20F0    	                jr nz,Falsh
 708:	5F0F  18EA    	                jr True
 709:			
 710:	5F11  FE3E    	TV10            cp ">"          ;больше
 711:	5F13  200C    	                jr nz,TV11
 712:	5F15  7C      	                ld a,h
 713:	5F16  BA      	                cp d
 714:	5F17  38E6    	                jr c,Falsh
 715:	5F19  20E0    	                jr nz,True
 716:	5F1B  7B      	                ld a,e
 717:	5F1C  BD      	                cp l
 718:	5F1D  30E0    	                jr nc,Falsh
 719:	5F1F  18DA    	                jr True
 720:			
 721:	5F21  FEF9    	TV11            cp #F9 ; #80+"<"+"="      ;меньше или равно
 722:	5F23  200C    	                jr nz,TV12
 723:	5F25  7A      	                ld a,d
 724:	5F26  BC      	                cp h
 725:	5F27  38D6    	                jr c,Falsh
 726:	5F29  20D0    	                jr nz,True
 727:	5F2B  7B      	                ld a,e
 728:	5F2C  BD      	                cp l
 729:	5F2D  38D0    	                jr c,Falsh
 730:	5F2F  18CA    	                jr True
 731:			
 732:	5F31  FEFA    	TV12            cp #FA ; #80+"<"+">"      ;не равно
 733:	5F33  2804    	                jr z,TV12A          ;добавлено в v0.2X
 734:	5F35  FEDE    	                cp #DE ; #80+"!"+"=";добавлено в v0.2X
 735:	5F37  200A    	                jr nz,TV13
 736:	5F39  7A      	TV12A           ld a,d
 737:	5F3A  BC      	                cp h
 738:	5F3B  20BE    	                jr nz,True
 739:	5F3D  7D      	                ld a,l
 740:	5F3E  BB      	                cp e
 741:	5F3F  28BE    	                jr z,Falsh
 742:	5F41  18B8    	                jr True
 743:			
 744:	5F43  FEFB    	TV13            cp #FB ; #80+">"+"="      ;больше или равно
 745:	5F45  200C    	                jr nz,TV14
 746:	5F47  7C      	                ld a,h
 747:	5F48  BA      	                cp d
 748:	5F49  38B4    	                jr c,Falsh
 749:	5F4B  20AE    	                jr nz,True
 750:	5F4D  7D      	                ld a,l
 751:	5F4E  BB      	                cp e
 752:	5F4F  38AE    	                jr c,Falsh
 753:	5F51  18A8    	                jr True
 754:			
 755:			; в v0.2X метка RLeft была переставлена на 2 инструкции вверх
 756:	5F53  FEF8    	TV14            cp #F8 ; #80+"<"+"<"      ;сдвиг влево
 757:	5F55  200C    	                jr nz,TV15
 758:	5F57  7C      	RLeft           ld a,h
 759:	5F58  17      	                rla             ;7-ой бит H во флаг CY
 760:	5F59  CB15    	                rl l
 761:	5F5B  CB14    	                rl h            ;сдвиг HL влево
 762:	5F5D  1B      	                dec de ; исправлено в v0.2X
 763:	5F5E  7B      	                ld a,e
 764:	5F5F  B2      	                or d
 765:	5F60  20F5    	                jr nz,RLeft
 766:	5F62  C9      	                ret
 767:			
 768:			; в v0.2X метка RReft была переставлена на 2 инструкции вверх
 769:	5F63  FEFC    	TV15            cp #FC ; #80+">"+">"      ;сдвиг вправо
 770:	5F65  C20E60  	                jp nz,CalcEr
 771:	5F68  7D      	RRight          ld a,l
 772:	5F69  1F      	                rra             ;0-ой бит L во флаг CY
 773:	5F6A  CB1C    	                rr h
 774:	5F6C  CB1D    	                rr l            ;сдвиг HL вправо
 775:	5F6E  1B      	                dec de ; исправлено в v0.2X
 776:	5F6F  7B      	                ld a,e
 777:	5F70  B2      	                or d
 778:	5F71  20F5    	                jr nz,RRight
 779:	5F73  C9      	                ret
 780:			;
 781:			;Деление HL=HL/DE (остаток в DE)
 782:			;
 783:	5F74  7B      	Divide          ld a,e
 784:	5F75  B2      	                or d
 785:	5F76  2007    	                jr nz,Div1
 786:	5F78  C1      	                pop bc          ;ошибка "Деление на ноль"
 787:	5F79  C1      	                pop bc
 788:	5F7A  D1      	                pop de
 789:			;                pop bc
 790:	5F7B  E1      	                pop hl
 791:	5F7C  C31E60  	                jp CalcEr4
 792:	5F7F  C5      	Div1            push bc
 793:	5F80  44      	                ld b,h
 794:	5F81  4D      	                ld c,l
 795:	5F82  210000  	                ld hl,0
 796:	5F85  3E10    	                ld a,16
 797:	5F87  CB21    	                sla c
 798:	5F89  CB10    	                rl b
 799:	5F8B  ED6A    	Div             adc hl,hl
 800:	5F8D  ED52    	                sbc hl,de
 801:	5F8F  3001    	                jr nc,$+3
 802:	5F91  19      	                add hl,de
 803:	5F92  CB11    	                rl c
 804:	5F94  CB10    	                rl b
 805:	5F96  3D      	                dec a
 806:	5F97  C28B5F  	                jp nz,Div
 807:	5F9A  EB      	                ex de,hl
 808:	5F9B  79      	                ld a,c
 809:	5F9C  2F      	                cpl
 810:	5F9D  6F      	                ld l,a
 811:	5F9E  78      	                ld a,b
 812:	5F9F  2F      	                cpl
 813:	5FA0  67      	                ld h,a
 814:	5FA1  C1      	                pop bc
 815:	5FA2  C9      	                ret
 816:			;
 817:			;Вычисление одноместных операций
 818:			;Вход:          DE - операнд
 819:			;               A  - операция
 820:			;Выход: HL - результат
 821:			;
 822:	5FA3  EB      	OneValue        ex de,hl
 823:			
 824:	5FA4  FE21    	                cp "!"          ;отрицание
 825:	5FA6  2008    	                jr nz,OV1
 826:	5FA8  7C      	                ld a,h
 827:	5FA9  BD      	                cp l
 828:	5FAA  2813    	                jr z,OV11
 829:	5FAC  210000  	                ld hl,#0000
 830:	5FAF  C9      	                ret
 831:			
 832:	5FB0  FE5E    	OV1             cp "^"          ;инвертирование
 833:	5FB2  2007    	                jr nz,OV2
 834:	5FB4  7C      	                ld a,h
 835:	5FB5  2F      	                cpl
 836:	5FB6  67      	                ld h,a
 837:	5FB7  7D      	                ld a,l
 838:	5FB8  2F      	                cpl
 839:	5FB9  6F      	                ld l,a
 840:	5FBA  C9      	                ret
 841:			
 842:	5FBB  FED6    	OV2             cp #D6 ; #80+"+"+"+"      ;инкремент
 843:	5FBD  2002    	                jr nz,OV3
 844:	5FBF  23      	OV11            inc hl
 845:	5FC0  C9      	                ret
 846:			
 847:	5FC1  FEDA    	OV3             cp #DA ; #80+"-"+"-"      ;декремент
 848:	5FC3  2002    	                jr nz,OV4
 849:	5FC5  2B      	                dec hl
 850:	5FC6  C9      	                ret
 851:			
 852:	5FC7  FE3E    	OV4             cp ">"          ;старший байт
 853:	5FC9  2004    	                jr nz,OV5
 854:	5FCB  6C      	                ld l,h
 855:	5FCC  2600    	                ld h,0
 856:	5FCE  C9      	                ret
 857:			
 858:	5FCF  FE3C    	OV5             cp "<"          ;младший байт
 859:	5FD1  2003    	                jr nz,OV6
 860:	5FD3  2600    	                ld h,0
 861:	5FD5  C9      	                ret
 862:			
 863:	5FD6  FE3F    	OV6             cp "?"          ;определенность метки
 864:	5FD8  2000    	                jr nz,OV7
 865:			
 866:	5FDA  FE2B    	OV7             cp "+"          ;унарный плюс
 867:	5FDC  2001    	                jr nz,OV8
 868:	5FDE  C9      	                ret
 869:			
 870:	5FDF  FE2D    	OV8             cp "-"          ;унарный минус
 871:	5FE1  C20E60  	                jp nz,CalcEr
 872:	5FE4  110000  	                ld de,#0000
 873:	5FE7  EB      	                ex de,hl
 874:	5FE8  B7      	                or a
 875:	5FE9  ED52    	                sbc hl,de
 876:	5FEB  C9      	                ret
 877:			;
 878:			;Выход с получением конечного результата
 879:			;
 880:	5FEC  F5      	ExitVar         push af
 881:			;                push bc
 882:	5FED  E5      	                push hl
 883:	5FEE  0602    	                ld b,#02        ;приоритет, выталкивание всего стека
 884:			;                ld a,(SPOp)
 885:			;                or a
 886:			;                jr z,EV1
 887:			;                add a,2
 888:			;                ld (SPOp),a
 889:	5FF0  CDF75D  	                call PopOp
 890:	5FF3  3A9069  	                ld a,(SPOp)
 891:	5FF6  B7      	                or a            ;если стек операций не пуст,
 892:	5FF7  2021    	                jr nz,CalcEr3   ;то наткнулись на '(' без ')'
 893:	5FF9  3A9169  	EV1             ld a,(SPNum)
 894:	5FFC  D602    	                sub 2           ;если стек операндов содержит более 1
 895:	5FFE  200E    	                jr nz,CalcEr    ;операнда, то в выражении ошибка
 896:	6000  21AB6D  	                ld hl,StackNum
 897:	6003  5E      	                ld e,(hl)
 898:	6004  23      	                inc hl
 899:	6005  56      	                ld d,(hl)       ;в DE результат
 900:	6006  E1      	                pop hl
 901:			;                pop bc
 902:	6007  F1      	                pop af
 903:	6008  C1      	                pop bc
 904:	6009  C9      	                ret
 905:			;
 906:			;Выход по ошибке
 907:			;
 908:	600A  0604    	CalcEr5         ld b,NoLabel    ;ошибка "Метка не определена"
 909:	600C  180A    	                jr $+12
 910:	600E  060B    	CalcEr          ld b,InvalidExp ;"Ошибка в выражении"
 911:	6010  180E    	                jr $+16
 912:	6012  0690    	CalcEr1         ld b,StackOpEr  ;ошибка "Переполнение стека операций"
 913:	6014  180A    	                jr $+12
 914:	6016  060C    	CalcEr2         ld b,MissingEr1 ;ошибка ") без ("
 915:	6018  1806    	                jr $+8
 916:	601A  060D    	CalcEr3         ld b,MissingEr2 ;ошибка "( без )"
 917:	601C  1802    	                jr $+4
 918:	601E  060E    	CalcEr4         ld b,DivZeroEr  ;ошибка "Деление на ноль"
 919:	6020  2B      	                dec hl
 920:	6021  7E      	                ld a,(hl)
 921:	6022  23      	                inc hl
 922:	6023  ED7B9569	                ld sp,(RetAddres)
 923:	6027  C37360  	                jp SkipStrC
 924:			
 925:			
 926:			;SPOp            db #00          ;вершина стека операций
 927:			;StackOp         ds 254          ;стек операций
 928:			;SPNum           db #00          ;вершина стека чисел
 929:			;StackNum        ds 254          ;стек чисел
 930:			
 931:			
 932:			;
 933:			;-- Таблица операций --
 934:			;
 935:	602A  21      	TblOneOp        db "!"          ;лог.отрицание a=0 -> a=1; a<>0 -> a=0
 936:	602B  5E      	                db "^"          ;побитное инвертирование
 937:	602C  2B      	                db "+"          ;инкремент a=a+1
 938:	602D  2D      	                db "-"          ;декремент a=a-1
 939:	602E  3C      	                db "<"          ;младший байт числа
 940:	602F  3E      	                db ">"          ;старший байт числа
 941:			;                db "?"          ;=1 -> метка определена; =0 -> не определена;
 942:			;                db "~"          ;вычитание из нуля 0-a
 943:			
 944:	6030  00      	                db 0
 945:			
 946:	6031  2B05    	TblTwoOp        db "+",5        ;сложение
 947:	6033  2D05    	                db "-",5        ;вычитание
 948:	6035  2A06    	                db "*",6        ;умножение
 949:	6037  2F06    	                db '/',6        ;деление
 950:	6039  5C06    	                db '\',6        ;остаток от деления
 951:	603B  2506    	                db "%",6        ;остаток от деления
 952:	603D  2103    	                db "!",3        ;побитный XOR
 953:	603F  2603    	                db "&",3        ;побитный AND
 954:	6041  7C03    	                db "|",3        ;побитный OR
 955:	6043  3C04    	                db "<",4        ;меньше
 956:	6045  3D04    	                db "=",4        ;равно
 957:	6047  3E04    	                db ">",4        ;больше
 958:			
 959:	6049  00      	                db 0
 960:			
 961:			;TblTwoOp2       db "<<",6       ;циклический сдвиг влево
 962:			;                db "<=",3       ;меньше или равно
 963:			;                db "<>",3       ;не равно
 964:			;                db ">>",6       ;циклический сдвиг вправо
 965:			;                db ">=",3       ;больше или равно
**** orgasm.asm ****
1293:			                include "util.asm"
**** util.asm ****
   1:			;-----------------------------------------------------------------------------
   2:			;--			      Вспомогательные утилиты			    --
   3:			;-----------------------------------------------------------------------------
   4:			;-- Проверка символа. Буква латинского алфавита или нет? --
   5:			;Вход:		A  - код символа
   6:			;Выход:"C" - буква
   7:			;      "NC"- другой символ
   8:			;
   9:	604A  FE41    	Letter		cp "A"
  10:	604C  3F      			ccf
  11:	604D  D0      			ret nc
  12:	604E  FE7B    			cp "{"
  13:	6050  D0      			ret nc
  14:	6051  FE5B    			cp "["
  15:	6053  D8      			ret c
  16:	6054  FE61    			cp "a"
  17:	6056  3F      			ccf
  18:	6057  C9      			ret
  19:			;
  20:			;-- Проверка символа. Цифра или нет? --
  21:			;Вход:		A  - код символа
  22:			;Выход:"C" - цифра
  23:			;      "NC"- другой символ
  24:			;
  25:	6058  FE30    	Numeric		cp "0"
  26:	605A  3F      			ccf
  27:	605B  D0      			ret nc
  28:	605C  FE3A    			cp ":"
  29:	605E  C9      			ret
  30:			;
  31:			;-- Перевод символа в CapsLock --
  32:			;Символ из A переводится в верхний регистр (только латинские буквы)
  33:			;
  34:	605F  FE61    	CapsLetter	cp #61		;<"a"
  35:	6061  D8      			ret c
  36:	6062  FE7B    			cp #7b		;>"z"
  37:	6064  D0      			ret nc
  38:	6065  E6DF    			and #df
  39:	6067  C9      			ret
  40:			;
  41:			;-- Пропуск табуляции и пробелов --
  42:			;Вход:		HL - адрес следующего за пробелом символа
  43:			;Выход: A  - первый символ отличный от пробела
  44:			;		HL - адрес следующего символа
  45:			;		флаг С установлен
  46:			;
  47:	6068  7E      	SkipSpace	ld a,(hl)
  48:	6069  23      			inc hl		;пропускаем пробелы и символы табуляции
  49:			;		 inc c
  50:	606A  FE09    			cp #09
  51:	606C  28FA    			jr z,SkipSpace
  52:	606E  FE20    			cp #20
  53:	6070  28F6    			jr z,SkipSpace
  54:	6072  C9      			ret
  55:			;
  56:			;-- Пропуск оставшейся части строки при возникновени ошибки --
  57:			;Вход:		A  - очередной символ строки
  58:			;		HL - адрес следующего символа строки
  59:			;		B  - номер ошибки
  60:			;Выход: HL - адрес начала новой строки
  61:			;
  62:	6073  CD1862  	SkipStrC	call ErrorAsm	;обработать ошибку
  63:	6076  ED7B9569	SkipStr		ld sp,(RetAddres)
  64:	607A  FE0D    	SStrC2		cp #0d
  65:	607C  2804    			jr z,SStrC1
  66:	607E  7E      			ld a,(hl)	;ищем конец строки
  67:	607F  23      			inc hl
  68:	6080  18F8    			jr SStrC2
  69:	6082          	SStrC1		;inc hl
  70:	6082  7E      			ld a,(hl)
  71:	6083  FE0A    			cp #0a
  72:	6085  C0      			ret nz
  73:	6086  23      			inc hl
  74:			;		 ld a,b
  75:			;		 scf		 ;установить флаг "C"
  76:	6087  C9      			ret
  77:			;
  78:			;-- Копирование спецификации файла в буфер --
  79:			;Вход: A  - пробел или табуляция
  80:			;      HL - начало строки спецификаци
  81:			;      DE - выходной буфер
  82:			;Выход: HL - адрес следующей строки
  83:			;		DE - нулевой байт окончания строки в буфере
  84:			;
  85:	6088  CD6860  	SpecFile	call SkipSpace
  86:	608B  0601    			ld b,SyntaxEr	;"Синтаксическая ошибка"
  87:	608D  4F      			ld c,a
  88:	608E  FE27    			cp "'"		;имя файла заключено в кавычки?
  89:	6090  2805    			jr z,SpecF1
  90:	6092  FE22    			cp '"'
  91:	6094  C27360  			jp nz,SkipStrC
  92:			
  93:	6097  7E      	SpecF1		ld a,(hl)
  94:	6098  23      			inc hl
  95:	6099  FE20    			cp #20
  96:	609B  DA7360  			jp c,SkipStrC	;не обнаружена закрывающаяся кавычка
  97:	609E  12      			ld (de),a
  98:	609F  13      			inc de
  99:	60A0  B9      			cp c
 100:	60A1  20F4    			jr nz,SpecF1
 101:			
 102:	60A3  7E      			ld a,(hl)	;следующий после ковычек символ
 103:	60A4  23      			inc hl
 104:	60A5  FE20    			cp #20		;пробел
 105:	60A7  CC6860  			call z,SkipSpace
 106:	60AA  FE09    			cp #09		;табуляция
 107:	60AC  CC6860  			call z,SkipSpace
 108:	60AF  4F      			ld c,a		;добавлено в v0.2X
 109:	60B0  FE2C    			cp ","		;запятая добавлена в v0.2X
 110:	60B2  280C    			jr z,SpecF3	;добавлено в v0.2X
 111:	60B4  FE3B    			cp ";"		;комментарии
 112:	60B6  2805    			jr z,SpecF2
 113:	60B8  FE0D    			cp #0d
 114:	60BA  C27360  			jp nz,SkipStrC
 115:			
 116:	60BD  CD7A60  	SpecF2		call SStrC2	;пропускаем оставшуюся часть строки
 117:	60C0  1B      	SpecF3		dec de
 118:	60C1  AF      			xor a
 119:	60C2  12      			ld (de),a
 120:	60C3  79      			ld a,c ; добавлено в v0.2X
 121:	60C4  C9      			ret
 122:			;
 123:			;-- Печать строки с проверкой выхода за пределы экрана и --
 124:			;-- переводом символов в нижний регистр --
 125:			;Вход: HL - начало строки
 126:			;
 127:	60C5  E5      	PrString	push hl
 128:	60C6  0E53    			ld c,Cursor
 129:	60C8  CD1248  			call DSS	;текущие координаты курсора
 130:	60CB  0E5B    			ld c,PutChar
 131:	60CD  43      			ld b,e
 132:			
 133:	60CE  E1      	PrStr1		pop hl
 134:	60CF  7E      			ld a,(hl)
 135:	60D0  B7      			or a		;напечатали всю строку?
 136:	60D1  2818    			jr z,PrStr3
 137:			
 138:	60D3  FE41    			cp #41
 139:	60D5  3806    			jr c,PrStr2
 140:	60D7  FE5B    			cp #5b
 141:	60D9  3002    			jr nc,PrStr2
 142:	60DB  F620    			or #20
 143:	60DD  23      	PrStr2		inc hl
 144:	60DE  04      			inc b
 145:	60DF  E5      			push hl
 146:	60E0  C5      			push bc
 147:	60E1  CD1248  			call DSS
 148:	60E4  C1      			pop bc
 149:			
 150:	60E5  78      			ld a,b
 151:	60E6  FE4F    			cp 79		;последняя позиция?
 152:	60E8  20E4    			jr nz,PrStr1
 153:	60EA  E1      			pop hl
 154:			
 155:	60EB  210867  	PrStr3		ld hl,CRLF
 156:	60EE  0E5C    			ld c,PChars
 157:	60F0  C31248  			jp DSS
 158:			;
 159:			;-- Проверка наличия расширеия и автоматическое его добавление --
 160:			;Вход: DE - нулевой байт спецификации файла
 161:			;      
 162:	60F3  C5      	AddExtAsm	push bc
 163:	60F4  E5      			push hl
 164:	60F5  3E2E    			ld a,"."
 165:	60F7  62      			ld h,d
 166:	60F8  6B      			ld l,e
 167:	60F9  2B      			dec hl
 168:	60FA  010400  			ld bc,4
 169:	60FD  EDB9    			cpdr
 170:	60FF  E1      			pop hl
 171:	6100  C1      			pop bc
 172:	6101  C8      			ret z
 173:	6102  3E2E    			ld a,"."
 174:	6104  12      			ld (de),a
 175:	6105  13      			inc de
 176:	6106  3E61    			ld a,"a"
 177:	6108  12      			ld (de),a
 178:	6109  13      			inc de
 179:	610A  3E73    			ld a,"s"
 180:	610C  12      			ld (de),a
 181:	610D  13      			inc de
 182:	610E  3E6D    			ld a,"m"
 183:	6110  12      			ld (de),a
 184:	6111  13      			inc de
 185:	6112  AF      			xor a
 186:	6113  12      			ld (de),a	;0 - окончание строки спецификации
 187:	6114  C9      			ret
 188:					  
 189:			
 190:			; Новый код, добавленный в v0.2X
 191:			
 192:	6115  3E01    	NewSub		ld     a, 1
 193:	6117  326E69  			ld     (OutFileID+1), a ; ???
 194:	611A  47      			ld     b, a
 195:	611B  3A6D69  			ld     a, (OutFileID) ; ???
 196:	611E  0E3F    			ld     c, SetMem
 197:	6120  D7      			rst    #10
 198:	6121  DA5948  			jp     c, ErrorDSS
 199:	6124  0E00    			ld     c, 0
 200:	6126  210080  			ld     hl, #8000
 201:	6129  227F69  			ld     (SaveObjAdr), hl
 202:	612C  79      	L0201		ld     a, c
 203:	612D  C5      			push   bc
 204:	612E  CD7F46  			call   SetBankMap
 205:	6131  C1      			pop    bc
 206:	6132  7E      	L0202		ld     a, (hl)
 207:	6133  B7      			or     a
 208:	6134  C8      			ret    z
 209:	6135  54      			ld     d, h
 210:	6136  5D      			ld     e, l
 211:	6137  C5      			push   bc
 212:	6138  0600    			ld     b, 0
 213:	613A  4F      			ld     c, a
 214:	613B  09      			add    hl, bc
 215:	613C  E5      			push   hl
 216:	613D  EB      			ex     de, hl
 217:	613E  23      			inc    hl
 218:	613F  3A8B69  			ld     a, (Operand1)
 219:	6142  B7      			or     a
 220:	6143  2805    			jr     z, L0213
 221:	6145  CB7E    			bit    7, (hl)
 222:	6147  CA0B62  			jp     z, L0212
 223:	614A  0D      	L0213		dec    c
 224:	614B  0D      			dec    c
 225:	614C  0D      			dec    c
 226:	614D  79      			ld     a, c
 227:	614E  FEDD    			cp     #DD
 228:	6150  3802    			jr     c, L0211
 229:	6152  0EDC    			ld     c, #DC
 230:	6154  FD60    	L0211		db #FD,#60 	; undefined
 231:	6156  FD69    			db #FD,#69 	; undefined
 232:	6158  DD210000			ld     ix, 0
 233:	615C  E5      			push   hl
 234:	615D  C5      			push   bc
 235:	615E  4F      			ld     c, a
 236:	615F  3E2E    			ld     a, "."
 237:	6161  EDB1    			cpir
 238:	6163  C1      			pop    bc
 239:	6164  E1      			pop    hl
 240:	6165  2003    			jr     nz, L0210
 241:	6167  DD2C    			db #DD,#2C 	; undefined
 242:	6169  0C      			inc    c
 243:	616A  79      	L0210		ld     a, c
 244:	616B  FE08    			cp     #08
 245:	616D  3003    			jr     nc, L0209
 246:	616F  DD24    			db #DD,#24 	; undefined
 247:	6171  0C      			inc    c
 248:	6172  C5      	L0209		push   bc
 249:	6173  D5      			push   de
 250:	6174  11AE6B  			ld     de, DataBuf
 251:	6177  FD44    			db #FD,#44 	; undefined
 252:	6179  FD4D    			db #FD,#4D 	; undefined
 253:	617B  DD7D    			db #DD,#7D 	; undefined
 254:	617D  B7      			or     a
 255:	617E  2804    			jr     z, L0208
 256:	6180  3E3B    			ld     a, ";"
 257:	6182  12      			ld     (de), a
 258:	6183  13      			inc    de
 259:	6184  EDB0    	L0208		ldir
 260:	6186  DD7C    			db #DD,#7C 	; undefined
 261:	6188  B7      			or     a
 262:	6189  3E09    			ld     a, #09
 263:	618B  2802    			jr     z, L0207
 264:	618D  12      			ld     (de), a
 265:	618E  13      			inc    de
 266:	618F  12      	L0207		ld     (de), a
 267:	6190  13      			inc    de
 268:	6191  3E45    			ld     a, "E"
 269:	6193  12      			ld     (de), a
 270:	6194  13      			inc    de
 271:	6195  3E51    			ld     a, "Q"
 272:	6197  12      			ld     (de), a
 273:	6198  13      			inc    de
 274:	6199  3E55    			ld     a, "U"
 275:	619B  12      			ld     (de), a
 276:	619C  13      			inc    de
 277:	619D  3E20    			ld     a, " "
 278:	619F  12      			ld     (de), a
 279:	61A0  13      			inc    de
 280:	61A1  3E23    			ld     a, "#"
 281:	61A3  12      			ld     (de), a
 282:	61A4  13      			inc    de
 283:	61A5  E1      			pop    hl
 284:	61A6  2B      			dec    hl
 285:	61A7  7E      			ld     a, (hl)
 286:	61A8  E6F0    			and    #f0
 287:	61AA  1F      			rra
 288:	61AB  1F      			rra
 289:	61AC  1F      			rra
 290:	61AD  1F      			rra
 291:	61AE  C630    			add    a, #30
 292:	61B0  FE3A    			cp     ":"
 293:	61B2  3802    			jr     c, L0206
 294:	61B4  C607    			add    a, #07
 295:	61B6  12      	L0206		ld     (de), a
 296:	61B7  13      			inc    de
 297:	61B8  7E      			ld     a, (hl)
 298:	61B9  E60F    			and    #0f
 299:	61BB  C630    			add    a, #30
 300:	61BD  FE3A    			cp     ":"
 301:	61BF  3802    			jr     c, L0205
 302:	61C1  C607    			add    a, #07
 303:	61C3  12      	L0205	 	ld     (de), a
 304:	61C4  13      			inc    de
 305:	61C5  2B      			dec    hl
 306:	61C6  7E      			ld     a, (hl)
 307:	61C7  E6F0    			and    #f0
 308:	61C9  1F      			rra
 309:	61CA  1F      			rra
 310:	61CB  1F      			rra
 311:	61CC  1F      			rra
 312:	61CD  C630    			add    a, #30
 313:	61CF  FE3A    			cp     ":"
 314:	61D1  3802    			jr     c, L0204
 315:	61D3  C607    			add    a, #07
 316:	61D5  12      	L0204		ld     (de), a
 317:	61D6  13      			inc    de
 318:	61D7  7E      			ld     a, (hl)
 319:	61D8  E60F    			and    #0f
 320:	61DA  C630    			add    a, #30
 321:	61DC  FE3A    			cp     ":"
 322:	61DE  3802    			jr     c, L0203
 323:	61E0  C607    			add    a, #07
 324:	61E2  12      	L0203		ld     (de), a
 325:	61E3  13      			inc    de
 326:	61E4  3E09    			ld     a, #09
 327:	61E6  12      			ld     (de), a
 328:	61E7  13      			inc    de
 329:	61E8  3E3B    			ld     a, ";"
 330:	61EA  12      			ld     (de), a
 331:	61EB  13      			inc    de
 332:	61EC  7E      			ld     a, (hl)
 333:	61ED  23      			inc    hl
 334:	61EE  66      			ld     h, (hl)
 335:	61EF  6F      			ld     l, a
 336:	61F0  CDC447  			call   Hex2Dec
 337:	61F3  13      			inc    de
 338:	61F4  3E0D    			ld     a, #0d
 339:	61F6  12      			ld     (de), a
 340:	61F7  13      			inc    de
 341:	61F8  3E0A    			ld     a, #0a
 342:	61FA  12      			ld     (de), a
 343:	61FB  C1      			pop    bc
 344:	61FC  211300  			ld     hl, #0013
 345:	61FF  09      			add    hl, bc
 346:	6200  45      			ld     b, l
 347:	6201  11AE6B  			ld     de, 06baeh
 348:	6204  1A      			ld     a, (de)
 349:	6205  CBBF    			res    7, a
 350:	6207  12      			ld     (de), a
 351:	6208  CDF949  			call   ObjCopy2
 352:	620B  E1      	L0212		pop    hl
 353:	620C  C1      			pop    bc
 354:	620D  CB74    			bit    6, h
 355:	620F  CA3261  			jp     z, L0202
 356:	6212  CBB4    			res    6, h
 357:	6214  0C      			inc    c
 358:	6215  C32C61  			jp     L0201
**** orgasm.asm ****
1294:			                include "error.asm"
**** error.asm ****
   1:			;
   2:			;Обработка ошибок компилятора
   3:			;
   4:	0001          	SyntaxEr	equ #01
   5:	0002          	InvalidLab	equ #02
   6:	0003          	LabelAlrEr	equ #03
   7:	0004          	NoLabel		equ #04
   8:	0005          	JumpEr		equ #05
   9:	0006          	PhaseEr		equ #06
  10:	0007          	DephaseEr	equ #07
  11:	0008          	InadmisORG	equ #08
  12:	0009          	IncludeEr	equ #09
  13:	000A          	DBInstrEr	equ #0a
  14:	000B          	InvalidExp	equ #0b
  15:	000C          	MissingEr1	equ #0c
  16:	000D          	MissingEr2	equ #0d
  17:	000E          	DivZeroEr	equ #0e
  18:	008F          	LabelTabEr	equ #8f
  19:	0090          	StackOpEr	equ #90
  20:	0091          	GeneralFail	equ #91
  21:			
  22:	6218          	ErrorAsm
  23:			;		 exa
  24:			;		 exx
  25:			;		 push hl
  26:			;		 push de
  27:			;		 push bc
  28:			;		 push af
  29:			;		 exa
  30:			;		 exx
  31:	6218  E5      			push hl
  32:			;		 push de
  33:			;		 push bc
  34:	6219  F5      			push af
  35:			
  36:			;		 ld de,(BegString)
  37:			;		 or a
  38:			;		 sbc hl,de	 ;номер ошибочной позиции
  39:			;		 dec hl
  40:			;		 push hl
  41:			
  42:	621A  C5      			push bc
  43:	621B  78      			ld a,b
  44:	621C  CBBF    			res 7,a		;сбрасываем бит фатальной ошибки
  45:	621E  FE12    			cp #12
  46:	6220  3802    			jr c,ErAsm1
  47:	6222  3E11    			ld a,#11
  48:	6224  3D      	ErAsm1		dec a
  49:	6225  87      			add a,a
  50:	6226  4F      			ld c,a
  51:	6227  0600    			ld b,0
  52:	6229  21A462  			ld hl,ErrAsmTbl
  53:	622C  09      			add hl,bc
  54:	622D  7E      			ld a,(hl)
  55:	622E  23      			inc hl
  56:	622F  66      			ld h,(hl)
  57:	6230  6F      			ld l,a
  58:	6231  E5      			push hl
  59:			
  60:	6232  0E53    			ld c,Cursor
  61:	6234  D7      			rst #10		;координаты курсора
  62:	6235  1E1E    			ld e,30
  63:	6237  0E52    			ld c,Locate
  64:	6239  D7      			rst #10		;новые координаты курсора
  65:	623A  E1      			pop hl
  66:	623B  0E5C    			ld c,PChars
  67:	623D  D7      			rst #10		;сообщение об ошибке
  68:	623E  210867  			ld hl,CRLF
  69:	6241  0E5C    			ld c,PChars
  70:	6243  D7      			rst #10		;перевод строки
  71:			
  72:	6244  0E53    			ld c,Cursor
  73:	6246  D7      			rst #10		;координаты курсора
  74:	6247  2A9969  			ld hl,(BegString)
  75:			;		 pop bc		 ;номер ошибочной позиции
  76:			;		 ld a,e
  77:					
  78:	624A          	ErAsm4		;CALL Debug
  79:			;		 cp c		 ;сравниваем печатаемую позицию с ошибочной
  80:	624A  060E    			ld b,00001110b
  81:			;		 jr nz,ErAsm2
  82:			;		 ld b,%11001110
  83:	624C  7E      	ErAsm2		ld a,(hl)
  84:	624D  23      			inc hl
  85:	624E  FE09    			cp #09
  86:	6250  2011    			jr nz,ErAsm6
  87:	6252  7B      			ld a,e
  88:	6253  FE48    			cp 72
  89:	6255  301F    			jr nc,ErAsm7
  90:	6257  2F      			cpl
  91:	6258  E607    			and 00000111b	;кол-во позиций до следующей позиции табул.
  92:	625A  3C      			inc a
  93:	625B  F5      			push af
  94:	625C  81      			add a,c
  95:	625D  4F      			ld c,a
  96:	625E  F1      			pop af
  97:	625F  83      			add a,e
  98:	6260  5F      			ld e,a
  99:			;		 push bc
 100:			;		 push de
 101:			;		 push hl
 102:			;		 ld hl,nTab
 103:			;		 ld c,PChars
 104:			;		 call DSS
 105:			;		 pop hl
 106:			;		 pop de
 107:			;		 pop bc
 108:	6261  18E7    			jr ErAsm4
 109:			
 110:	6263  FE20    	ErAsm6		cp #20
 111:	6265  381A    			jr c,ErAsm3
 112:			
 113:	6267  C5      			push bc
 114:	6268  D5      			push de
 115:	6269  E5      			push hl
 116:	626A  0E58    			ld c,WrChar
 117:	626C  D7      			rst #10		;печать символа строки с цветом
 118:	626D  E1      			pop hl
 119:	626E  D1      			pop de
 120:	626F  C1      			pop bc
 121:	6270  1C      			inc e
 122:	6271  7B      			ld a,e
 123:	6272  FE4C    			cp 76
 124:	6274  38D4    			jr c,ErAsm4
 125:	6276  0603    	ErAsm7		ld b,3
 126:	6278  0E5B    			ld c,PutChar
 127:	627A  3E2E    	ErAsm5		ld a,"."
 128:	627C  C5      			push bc
 129:	627D  D7      			rst #10		;печать символа
 130:	627E  C1      			pop bc
 131:	627F  10F9    			djnz ErAsm5
 132:			
 133:			
 134:	6281  210867  	ErAsm3		ld hl,CRLF
 135:	6284  0E5C    			ld c,PChars
 136:	6286  D7      			rst #10		;перевод строки
 137:	6287  1E07    			ld e,00000111b
 138:	6289  064E    			ld b,78
 139:	628B  0E83    			ld c,LP_Print_Atr
 140:	628D  CF      			rst #8 ; изменено в v0.2X
 141:	628E  210967  			ld hl,CRLF+1
 142:	6291  0E5C    			ld c,PChars
 143:	6293  D7      			rst #10		;в начало строки
 144:	6294  2A9D69  			ld hl,(ErrorPass)
 145:	6297  23      			inc hl
 146:	6298  229D69  			ld (ErrorPass),hl
 147:	629B  C1      			pop bc
 148:	629C  CB78    			bit 7,b
 149:	629E  C22748  			jp nz,ExitDSS	;выход при фатальной ошибке
 150:			;		 pop af
 151:			;		 pop bc
 152:			;		 pop de
 153:			;		 pop hl
 154:			;		 exa
 155:			;		 exx
 156:	62A1  F1      			pop af
 157:			;		 pop bc
 158:			;		 pop de
 159:	62A2  E1      			pop hl
 160:			;		 exa
 161:			;		 exx
 162:	62A3  C9      			ret
 163:			
 164:			;nTab		 db 9,0
 165:			
 166:	62A4  C662    	ErrAsmTbl	dw er01
 167:	62A6  D362    			dw er02
 168:	62A8  E162    			dw er03
 169:	62AA  F762    			dw er04
 170:	62AC  0563    			dw er05
 171:	62AE  2063    			dw er06
 172:	62B0  3F63    			dw er07
 173:	62B2  4F63    			dw er08
 174:	62B4  7763    			dw er09
 175:	62B6  8D63    			dw er0A
 176:	62B8  B863    			dw er0B
 177:	62BA  CB63    			dw er0C
 178:	62BC  D563    			dw er0D
 179:	62BE  DF63    			dw er0E
 180:	62C0  F063    			dw er8F
 181:	62C2  0C64    			dw er90
 182:	62C4  2C64    			dw er91
 183:			;		 dw er12
 184:			;		 dw er13
 185:			;		 dw er14
 186:			;		 dw er15
 187:			
 188:	62C6  53796E74	er01		db "Syntax error",0
	      61782065
	      72726F72
	      00
 189:	62D3  496E7661	er02		db "Invalid label",0
	      6C696420
	      6C616265
	      6C00
 190:	62E1  4C616265	er03		db "Label already defined",0
	      6C20616C
	      72656164
	      79206465
	      66696E65
	      6400
 191:	62F7  4E6F2073	er04		db "No such label",0
	      75636820
	      6C616265
	      6C00
 192:	6305  52656C61	er05		db "Relative jump out of range",0
	      74697665
	      206A756D
	      70206F75
	      74206F66
	      2072616E
	      676500
 193:	6320  50484153	er06		db "PHASE directive before DEPHASE",0
	      45206469
	      72656374
	      69766520
	      6265666F
	      72652044
	      45504841
	      534500
 194:	633F  4D697373	er07		db "Missing DEPHASE",0
	      696E6720
	      44455048
	      41534500
 195:	634F  496E6164	er08		db "Inadmissible ORG in block PHASE/DEPHASE",0
	      6D697373
	      69626C65
	      204F5247
	      20696E20
	      626C6F63
	      6B205048
	      4153452F
	      44455048
	      41534500
 196:	6377  546F6F20	er09		db "Too many INCLUDE file",0
	      6D616E79
	      20494E43
	      4C554445
	      2066696C
	      6500
 197:	638D  546F6F20	er0A		db "Too many data in DB, DW or DS instructions",0
	      6D616E79
	      20646174
	      6120696E
	      2044422C
	      20445720
	      6F722044
	      5320696E
	      73747275
	      6374696F
	      6E7300
 198:	63B8  496E7661	er0B		db "Invalid expression",0
	      6C696420
	      65787072
	      65737369
	      6F6E00
 199:	63CB  4D697373	er0C		db "Missing (",0
	      696E6720
	      2800
 200:	63D5  4D697373	er0D		db "Missing )",0
	      696E6720
	      2900
 201:	63DF  44697669	er0E		db "Division by zero",0
	      73696F6E
	      20627920
	      7A65726F
	      00
 202:	63F0  4F766572	er8F		db "Overflowing of labels table",0
	      666C6F77
	      696E6720
	      6F66206C
	      6162656C
	      73207461
	      626C6500
 203:	640C  4F766572	er90		db "Overflowing of operations stack",0
	      666C6F77
	      696E6720
	      6F66206F
	      70657261
	      74696F6E
	      73207374
	      61636B00
 204:	642C  47656E65	er91		db "General failure",0
	      72616C20
	      6661696C
	      75726500
 205:			
**** orgasm.asm ****
1295:			
1296:			;                include "debug.asm"
1297:			;
1298:			;
1299:	643C  496E7661	ErrorPort       db "Invalid RAM-port",13,10,0
	      6C696420
	      52414D2D
	      706F7274
	      0D0A00
1300:	644F  546F7461	TotalMem        db "Total memory: "
	      6C206D65
	      6D6F7279
	      3A20
1301:	645D  20202020	VarTMem         db "     " ; для zmac переделано - было ds 5," " (Shaos)
	      20
1302:	6462  6B420D0A	                db "kB",13,10,0
	      00
1303:	6467  46726565	FreeMem1        db "Free memory:  "
	      206D656D
	      6F72793A
	      2020
1304:	6475  20202020	VarFMem         db "     " ; для zmac переделано - было ds 5," " (Shaos)
	      20
1305:	647A  6B420D0A	                db "kB",13,10,0
	      00
1306:	647F  0D0A    	Hello           db 13,10
1307:	6481  20202020	                db "                                                       ",13,10
	      20202020
	      20202020
	      20202020
	      20202020
	      20202020
	      20202020
	      20202020
	      20202020
	      20202020
	      20202020
	      20202020
	      20202020
	      2020200D
	      0A
1308:	64BA  4F726741	                db "OrgAsm v0.28beta <Created by Alpha Studio>",13,10
	      736D2076
	      302E3238
	      62657461
	      203C4372
	      65617465
	      64206279
	      20416C70
	      68612053
	      74756469
	      6F3E0D0A
1309:	64E6  4C617374	                db "Last edition 15.12.2002 (BLR 00:21)",13,10
	      20656469
	      74696F6E
	      2031352E
	      31322E32
	      30303220
	      28424C52
	      2030303A
	      3231290D
	      0A
1310:	650B  4669646F	                db "FidoNet: 2:454/5.18 to Igor Zhadinets; e-mail: igor_ast@tut.by",13,10,10,0
	      4E65743A
	      20323A34
	      35342F35
	      2E313820
	      746F2049
	      676F7220
	      5A686164
	      696E6574
	      733B2065
	      2D6D6169
	      6C3A2069
	      676F725F
	      61737440
	      7475742E
	      62790D0A
	      0A00
1311:	654D  4F726741	Help            db 'OrgAsm [drv:\path\]inFile[.ext] [drv:\path\outFile.ext] [/options]',13,10,10
	      736D205B
	      6472763A
	      5C706174
	      685C5D69
	      6E46696C
	      655B2E65
	      78745D20
	      5B647276
	      3A5C7061
	      74685C6F
	      75744669
	      6C652E65
	      78745D20
	      5B2F6F70
	      74696F6E
	      735D0D0A
	      0A
1312:	6592  2F45202D	                db '/E - create EXE-prefix  ',13,10
	      20637265
	      61746520
	      4558452D
	      70726566
	      69782020
	      0D0A
1313:	65AC  2F43202D	                db '/C - upper Case significant in symbols',13,10
	      20757070
	      65722043
	      61736520
	      7369676E
	      69666963
	      616E7420
	      696E2073
	      796D626F
	      6C730D0A
1314:	65D4  2F4D202D	                db '/M - create Symbol table   ',13,10
	      20637265
	      61746520
	      53796D62
	      6F6C2074
	      61626C65
	      2020200D
	      0A
1315:	65F1  2F53202D	                db '/S - clear Screen',13,10,0
	      20636C65
	      61722053
	      63726565
	      6E0D0A00
1316:	6605  50617373	PassText        db "Pass 1",13,10,0
	      20310D0A
	      00
1317:	660E  0D0A5363	Scanning        db 13,10,"Scanning Symbol table...     ",13,10,0 ; новое в v0.2X
	      616E6E69
	      6E672053
	      796D626F
	      6C207461
	      626C652E
	      2E2E2020
	      2020200D
	      0A00
1318:	6630  0D0A4C6F	Loading         db 13,10,"Load file: ",0
	      61642066
	      696C653A
	      2000
1319:	663E  0D0A5361	Saving          db 13,10,"Save file: ",0
	      76652066
	      696C653A
	      2000
1320:	664C  0D0A0A49	Including       db 13,10,10,"Include file: ",0
	      6E636C75
	      64652066
	      696C653A
	      2000
1321:	665E  0D0A0A49	IncludingBin    db 13,10,10,"Incbin file: ",0 ; новое в v0.2X
	      6E636269
	      6E206669
	      6C653A20
	      00
1322:	666F  0D0A5265	Continue        db 13,10,"Return to file: ",0
	      7475726E
	      20746F20
	      66696C65
	      3A2000
1323:	6682  43757272	Asembling       db "Current line: 00000",13,0
	      656E7420
	      6C696E65
	      3A203030
	      3030300D
	      00
1324:			;PrPCAddres      db "(00000)",13,0
1325:	6697  4572726F	Errors          db "Errors: 00000",32,32,32,"No code generated...",13,10,0
	      72733A20
	      30303030
	      30202020
	      4E6F2063
	      6F646520
	      67656E65
	      72617465
	      642E2E2E
	      0D0A00
1326:	66BE  50617573	PrPause         db "Pause...  <Esc> to Exit or <AnyKey> to Continue",0
	      652E2E2E
	      20203C45
	      73633E20
	      746F2045
	      78697420
	      6F72203C
	      416E794B
	      65793E20
	      746F2043
	      6F6E7469
	      6E756500
1327:	66EE  0D0A436F	PrTimeComp      db 13,10,"Compile time - 00:00",13,10,10,0
	      6D70696C
	      65207469
	      6D65202D
	      2030303A
	      30300D0A
	      0A00
1328:	6708  0A0D00  	CRLF            db 10,13,0
1329:			;
1330:			;------ Коды ошибок DOS ------
1331:			;
1332:	670B  4F274B65	c0              db "O'Key!",13,10,0
	      79210D0A
	      00
1333:	6714  496E7661	c1              db "Invalid function",0
	      6C696420
	      66756E63
	      74696F6E
	      00
1334:	6725  496E7661	c2              db "Invalid drive number",0
	      6C696420
	      64726976
	      65206E75
	      6D626572
	      00
1335:	673A  46696C65	c3              db "File not found",0
	      206E6F74
	      20666F75
	      6E6400
1336:	6749  50617468	c4              db "Path not found",0
	      206E6F74
	      20666F75
	      6E6400
1337:	6758  496E7661	c5              db "Invalid handle",0
	      6C696420
	      68616E64
	      6C6500
1338:	6767  546F6F20	c6              db "Too many open files",0
	      6D616E79
	      206F7065
	      6E206669
	      6C657300
1339:	677B  46696C65	c7              db "File exist",0
	      20657869
	      737400
1340:	6786  46696C65	c8              db "File read only",0
	      20726561
	      64206F6E
	      6C7900
1341:	6795  526F6F74	c9              db "Root overflow",0
	      206F7665
	      72666C6F
	      7700
1342:	67A3  4E6F2066	ca              db "No free space",0
	      72656520
	      73706163
	      6500
1343:	67B1  44697265	cb              db "Directory not empty",0
	      63746F72
	      79206E6F
	      7420656D
	      70747900
1344:	67C5  41747465	cc              db "Attempt to remove current directory",0
	      6D707420
	      746F2072
	      656D6F76
	      65206375
	      7272656E
	      74206469
	      72656374
	      6F727900
1345:	67E9  496E7661	cd              db "Invalid media",0
	      6C696420
	      6D656469
	      6100
1346:	67F7  496E7661	ce              db "Invalid operation",0
	      6C696420
	      6F706572
	      6174696F
	      6E00
1347:	6809  44697265	cf              db "Directory exist",0
	      63746F72
	      79206578
	      69737400
1348:	6819  496E7661	c10             db "Invalid filename",0
	      6C696420
	      66696C65
	      6E616D65
	      00
1349:	682A  496E7661	c11             db "Invalid EXE-file",0
	      6C696420
	      4558452D
	      66696C65
	      00
1350:	683B  4E6F7420	c12             db "Not supported EXE-file",0
	      73757070
	      6F727465
	      64204558
	      452D6669
	      6C6500
1351:	6852  5065726D	c13             db "Permission denied",0
	      69737369
	      6F6E2064
	      656E6965
	      6400
1352:	6864  4E6F7420	c14             db "Not ready",0
	      72656164
	      7900
1353:	686E  5365656B	c15             db "Seek error",0
	      20657272
	      6F7200
1354:	6879  53656374	c16             db "Sector not found",0
	      6F72206E
	      6F742066
	      6F756E64
	      00
1355:	688A  43524320	c17             db "CRC error",0
	      6572726F
	      7200
1356:	6894  57726974	c18             db "Write protect",0
	      65207072
	      6F746563
	      7400
1357:	68A2  52656164	c19             db "Read error",0
	      20657272
	      6F7200
1358:	68AD  57726974	c1a             db "Write error",0
	      65206572
	      726F7200
1359:	68B9  44726976	c1b             db "Drive failure",0
	      65206661
	      696C7572
	      6500
1360:	68C7  556E6B6E	c1c             db "Unknown error : 28",0
	      6F776E20
	      6572726F
	      72203A20
	      323800
1361:	68DA  556E6B6E	c1d             db "Unknown error : 29",0
	      6F776E20
	      6572726F
	      72203A20
	      323900
1362:	68ED  4E6F2066	c1e             db "No free memory",0
	      72656520
	      6D656D6F
	      727900
1363:	68FC  496E7661	c1f             db "Invalid memory block",0
	      6C696420
	      6D656D6F
	      72792062
	      6C6F636B
	      00
1364:	6911  556E6B6E	c20             db "Unknown error : 32...",0
	      6F776E20
	      6572726F
	      72203A20
	      33322E2E
	      2E00
1365:			;---таблица с адресами кодов ошибок---
1366:	6927  0B671467	ErrorTabl       dw c0,c1,c2,c3,c4,c5,c6,c7,c8,c9,ca,cb,cc,cd,ce,cf
	      25673A67
	      49675867
	      67677B67
	      86679567
	      A367B167
	      C567E967
	      F7670968
1367:	6947  19682A68	                dw c10,c11,c12,c13,c14,c15,c16,c17,c18,c19,c1a,c1b
	      3B685268
	      64686E68
	      79688A68
	      9468A268
	      AD68B968
1368:	695F  C768DA68	                dw c1c,c1d,c1e,c1f,c20
	      ED68FC68
	      1169
1369:			
1370:	6969  00      	OpenFile        db 0            ;признак откр.файла (<>0 - есть откр.файл)
1371:			;OpenMem         db 0            ;кол-во занятых блоков памяти
1372:	696A  00      	Pass            db 0            ;номер прохода компилятора
1373:	696B  0000    	InFileID        dw 0            ;ID и размер блока памяти под исходники (2)
1374:	696D  0000    	OutFileID       dw 0            ; -"- под выходной код (2)
1375:	696F  0000    	MapLabelID      dw 0            ; -"- под таблицу меток (2)
1376:	6971  0000    	RepFileID       dw 0            ; -"- под файл репорта (2)
1377:	6973  00      	CapsLabel       db 0            ;#ff - все символы метки переводятся в
1378:			                                ;верхний регистр; #00 - нет
1379:	6974  00      	GlBufer         db 0            ;#ff - единый буфер для всех меток
1380:			                                ;#00 - локальный буфер для каждого листинга
1381:	6975  00      	RepFile         db 0            ;#ff - создавать файл репорт
1382:			                                ;#00 - не создавать
1383:	6976  00      	SymFlag         db 0            ;#ff - создавать таблицу символов (новое в v0.28)
1384:			                                ;#00 - не создавать
1385:	6977  00      	PhaseFlag       db 0            ;#00 - не было PHASE
1386:			                                ;#ff - установлен PHASE
1387:	6978  0081    	New1            dw #8100        ; появилось в v0.2X
1388:	697A  0081    	New2            dw #8100        ; появилось в v0.2X
1389:	697C  FFBF    	New3            dw #bfff        ; появилось в v0.2X
1390:			
1391:	697E  00      	EndLabel        db #00          ;старший байт конца таблицы меток
1392:			
1393:	697F  0080    	SaveObjAdr      dw #8000        ;адрес записи байта obj-кода в память
1394:	6981  00      	NumOpenFile     db #00          ;порядковый номер открываемого файла
1395:	6982  FF      	CurrentFile     db #ff          ;номер текущего ассемблируемого файла
1396:	6983  FFBF    	AdrOpenFile     dw #bfff        ;адрес начала загрузки очередного файла -1
1397:	7C00          	TblLoadFile     equ #7C00 ;v0.2X;таблица загруженных файлов (в v0.15 было #7600)
1398:			                ;+0 - номер банки загрузки файла -1 (1)
1399:			                ;+1 - адрес загрузки файла в 3-е окно (2)
1400:			                ;+3 - номер банки с include-строкой (1)
1401:			                ;+4 - адрес строки с именем подключаемого файла (2)
1402:			                ;+6 - номер include-строки (2)
1403:			                ;+8 - номер файла возврата (1)
1404:	8000          	TabLabel        equ #8000       ;начало таблицы меток
1405:			;FileID          equ $           ;id открытого файла (1)
1406:			;MemID           equ FileID+1    ;адрес таблицы выделенной памяти (2)
1407:			;MemID           equ $           ;адрес таблицы выделенной памяти (2)
1408:			
1409:	6985          	RepFAdr         equ $          ;адрес начала имени файла репорта (2)
1410:	6987          	SomeAdr         equ RepFAdr+2  ;новый адрес в v0.28 (2)
1411:	6989          	OutFAdr         equ SomeAdr+2  ;адрес начала имени выходного файла (2)
1412:	698B          	Operand1        equ OutFAdr+2   ;код первого операнда (1)
1413:	698C          	Operand2        equ Operand1+1  ;код второго операнда (1)
1414:	698D          	Var1            equ Operand2+1  ;2-х байтное значение переменной (2)
1415:	698F          	Var2            equ Var1+2      ;значение смещения в командах с инд.рег. (1)
1416:	6990          	SPOp            equ Var2+1      ;вершина стека операций (1)
1417:	6991          	SPNum           equ SPOp+1      ;вершина стека значений (1)
1418:	6994          	TextPage        equ SPNum+3     ;оставшееся кол-во банок с текстом (1)
1419:	6995          	RetAddres       equ TextPage+1  ;адрес возврата при возникновении ошибки (2)
1420:	6997          	NumString       equ RetAddres+2 ;номер обрабатываемой строки (2)
1421:	6999          	BegString       equ NumString+2 ;адрес начала текущей строки в памяти (2)
1422:	699B          	LabelVar        equ BegString+2 ;значение метки (2)
1423:	699D          	ErrorPass       equ LabelVar+2  ;кол-во ошибок компиляции (2)
1424:	699F          	PCAddres        equ ErrorPass+2 ;адрес компиляции (2)
1425:	69A1          	OrgAddres       equ PCAddres+2  ;адрес ассемб. при переходе на PHASE (2)
1426:	69A3          	PhaseAddres     equ OrgAddres+2 ;значение PHASE адреса (2)
1427:	69A5          	TimeComp        equ PhaseAddres+2;время начала компиляции (3)
1428:	69A8          	CmndBuf         equ TimeComp+3  ;буфер команды или мнемоники (8)
1429:	69B0          	WordBuf         equ CmndBuf+8   ;буфер калькулятора, буфер под мету и др.(255)
1430:	6AAF          	SomeBuf         equ WordBuf+255 ;добавлено для совместимости с v0.2X (255)
1431:	6BAE          	DataBuf         equ SomeBuf+255 ;буфер под объектный код (255)
1432:	6CAD          	StackOp         equ DataBuf+255 ;стек операций калькулятора (254)
1433:	6DAB          	StackNum        equ StackOp+254 ;стек членов выражения (254)
1434:	6EA9          	ComBuffer       equ StackNum+254;начало буфера параметров ком.строки
1435:			                ;данные распологаются следующим образом:
1436:			                ;диск, путь ,имя и расширение входного файла
1437:			                ;#00 - признак окончания 1-го параметра
1438:			                ;диск, путь ,имя и расширение выходного файла
1439:			                ;#00 - признак окончания 2-го параметра
1440:			                ;диск, путь ,имя и расширение файла-репорта
1441:			                ;#00 - признак окончания 3-го параметра
1442:			;Далее размещается таблица выделенных блоков памяти (2 байта на каждый блок,
1443:			;1-ый ббайт - idблока памяти, 2-ой - размер блока в банках)
1444:			;
1445:			; 1 блок - таблица меток
1446:			; 2 блок - объектный код
1447:			; 3 блок - исходный листинг
1448:			; 4 блок - репорт о процессе компиляции (?)
1449:			
1450:			;                END
**** orgasm.asm ****



Statistics:

   654	symbols
 10139	bytes



Symbol Table:

_adc            4DAA     emm_fn5        =00C5+    orgaddres      =69A1     
_adc1           4DDF     emm_fn6        =00C6     outfadr        =6989     
_adc2           4DF4     endlabel        697E+    outfileid       696D     
_adc3           4DD6     er01            62C6     ov1             5FB0     
_adc4           4DC0     er02            62D3     ov11            5FBF     
_adc5           4DB8     er03            62E1     ov2             5FBB     
_add            4D6D     er04            62F7     ov3             5FC1     
_add1           4D95     er05            6305     ov4             5FC7     
_add2           4D9D     er06            6320     ov5             5FCF     
_and            4D68     er07            633F     ov6             5FD6     
_bit            4E53     er08            634F     ov7             5FDA     
_bit1           4E71     er09            6377     ov8             5FDF     
_bit2           4E8D     er0a            638D     page0          =0082     
_call           4EED     er0b            63B8     page1          =00A2     
_call1          4F01     er0c            63CB     page2          =00C2     
_cp             4D63     er0d            63D5     page3          =00E2     
_db             5479     er0e            63DF     pass            696A     
_db0            5493     er8f            63F0     passtext        6605     
_db1            547F     er90            640C     pcaddres       =699F     
_db2            5481     er91            642C     pchars         =005C     
_dec            4F7E     erasm1          6224     pcvar           5BE7     
_dec1           4F99     erasm2          624C+    phaseaddres    =69A3     
_dec2           4F88     erasm3          6281     phaseer        =0006     
_dephase        5454     erasm4          624A     phaseflag       6977     
_djnz           4D11     erasm5          627A     popop           5DF7     
_ds             552E     erasm6          6263     popop1          5DF5     
_ds1            5551     erasm7          6276     ppop3           5E0D     
_ds2            5567     errasmtbl       62A4     ppop4           5E1D     
_ds3            5557     error           4859     ppop5           5E72     
_dw             54F0     error0          485F     ppop7           5E41     
_dw1            54EE     errorasm        6218     ppop8           5E03     
_dw2            550D     errordss        4859     prdd_bit        4EA3     
_entry          541A     errordss1       4850     prdd_onecode    531C     
_ex             4F31     errorpass      =699D     prdd_regn       5329     
_ex_sp_         4F5D     errorport       643C     prdd_regnn      5353     
_exaf           4F4E     errors          6697     prdd_regns      536C     
_im             4FED     errortabl       6927     prdd_regs       533C     
_im1            5008     ev1             5FF9+    pred_onecode    5318     
_im2            4FFF     excmdln        =0045+    pred_regnn      534F     
_in             5050     exit           =0041     prfd_bit        4E9F     
_in1            506A     exitdss         4827     prfd_onecode    5320     
_in2            5060     exitvar         5FEC     prfd_regn       532D     
_in3            5075     exnumbin        5CF7     prfd_regnn      5357     
_inc            4F72     exnumhex        5CD2     prfd_regns      5370     
_incbin         55AD     extmemlf        478B     prfd_regs       5340     
_include        556D     extmemlf1       478E     printhelp       4877     
_jp             4ECA     falsh           5EFF     prpause         66BE     
_jr             4CE0     freemem        =003E     prstr1          60CE     
_jr1            4CEF     freemem1        6467     prstr2          60DD     
_jr2            4D07     frmem1          484A     prstr3          60EB     
_jrdjnz         4D1E     frmem2          4838     prstring        60C5     
_ld             50B4     generalfail    =0091+    prtimecomp      66EE     
_ld_hl_         52AD     getmem         =003D     pushop          5DD7     
_ld_hl_1        52C0     getvar          5B51     putchar        =005B     
_ld_ix_         52C7     getvar2         5B90     read_          =0013     
_ld_ix_1        52DA     glbufer         6974     regn            5332     
_ld_iy_         52E1     gospec          46A6     regnn           535C     
_ld_iy_1        52F4     gswitch        =0043+    regns           5375+    
_lda            513A     gv1             5B9A     regs            5345+    
_ldbc_          51F1     gv2             5B92     repfadr        =6985     
_ldbcde         515F     gv3             5B5C     repfile         6975     
_ldbcde1        5172     gv4             5B7C     repfileid       6971+    
_ldbcde2        5183     gv5             5B82     retaddres      =6995     
_ldbcde3        5173     gv6             5B78     rleft           5F57     
_ldde_          51F5     gv7             5B74     rotation        4E6B     
_ldde_1         51F7     gv8             5B89     rright          5F68     
_ldhl           51B8     h2d1            480B     saveobjadr      697F     
_ldhl1          51C1     hello           647F     saveoutf        44C8     
_ldhl2          51D2     help            654D     savesp          54EC     
_ldhl_          5207     hex2dec         47C4     saving          663E     
_ldhlx1         524D     hex2dec2        47F2     sc10            495A     
_ldhlx2         525E     ib0             56D1     sc12            49B3     
_ldhly1         5288     ib1             55CE     sc13            4995+    
_ldhly2         5299     ib10            5697     sc14            49D1     
_ldhx           5247     ib11            56BC     sc15            49E7     
_ldhy           5282     ib12            5679     sc16            498F     
_ldir_bc_de_    52FB     ib13            5663     sc2             495F     
_ldix_          5237     ib14            56D9     sc4             4991     
_ldiy_          5272     ib2             55E3     sc5             4979     
_ldlx           524B     ib2a            55E6     sc6             4952     
_ldly           5286     ib3             5625     sc7             497D+    
_ldsp_          5217     ib3a            5624     scancmnd        494D     
_or             4D5E     ib4             5640     scankey        =0031     
_org            53EB     ib5             563C     scanlabel       597E     
_org1           5416     ib7             565B     scanlabel1      5982     
_out            5036     ib9             5693     scanlabel2      5984     
_out1           5048     inadmisorg     =0008     scanning        660E     
_phase          542E     includeer      =0009     scanstring      4887     
_pop            5087     including       664C     searchlab       5BEE     
_pop1           5089     includingbin    665E     searchlabel     5AE0     
_push           5083     infileid        696B     setbankasm      4685     
_res            4E4F     infomem        =003C     setbankasm1     4689     
_ret            4EB7     invalidexp     =000B     setbankmap      467F     
_ret1           4EC6     invalidlab     =0002+    setmem         =003F     
_rl             4E2B     jumpdown        4D34     setwin         =0038+    
_rlc            4E2F     jumper         =0005     setwin1        =0039+    
_rr             4E33     jumperror       4D3B     setwin2        =003A     
_rrc            4E37     l0201           612C     setwin3        =003B     
_rst            500F     l0202           6132     skipspace       6068     
_rst1           502B     l0203           61E2     skipstr         6076     
_rst2           5021     l0204           61D5     skipstrc        6073     
_sbc            4D4C     l0205           61C3     sl1             5A01     
_set            4E4B     l0206           61B6     sl10            59C1     
_sla            4E3B     l0207           618F     sl11            59A0     
_sll            4E3F     l0208           6184     sl3             59E9     
_sra            4E43     l0209           6172     sl4             59CD     
_srl            4E47     l0210           616A     sl5             59C6     
_stack          5424     l0211           6154     sl6             59AE     
_sub            4D47     l0212           620B     sl7             599C     
_xor            4D42     l0213           614A     sl8             59A4     
addextasm       60F3     labelalrer     =0003     sl9             59B8     
adropenfile     6983     labeltaber     =008F     sof01           4509     
asemblfile      43B0     labelvar       =699B     sof02           451B     
asembling       6682     letter          604A     sof04           4546     
asmf1           440E     lf1             4705     sof1            45FE     
asmf2           4374     lf3             474B     sof100          4620     
asmf3           44A8     lf4             4724     sof1a           45F6     
asmf4           447E     lf5             46DA     someadr        =6987     
asmf5           43FD     lf6             477B     somebuf        =6AAF     
asmf6           4456     lf7             4760     specf1          6097     
asmf7           43FB     loadfile        46B4     specf2          60BD     
asmf8           43F1     loading         6630     specf3          60C0     
begstring      =6999     locate         =0052     specfile        6088     
bitresset       4E55     logic           4DD9     spnum          =6991     
c0              670B     lp_print_atr   =0083     spop           =6990     
c1              6714     main            4200+    srl1            5AFD     
c10             6819     maplabelid      696F     srl2            5B15     
c11             682A     meminfofree     479E     srl3            5B3A     
c12             683B     meminfototal    47B0     srl4            5B34     
c13             6852     missinger1     =000C     srl5            5B2C     
c14             6864     missinger2     =000D     srl6            5B0B     
c15             686E     move_fp        =0015     srl7            5B02     
c16             6879     multlp          5EAA     ss1             48D0     
c17             688A     nb1             5CE9     ss2             48C3     
c18             6894     nd1             5C97     ss3             48D3     
c19             68A2     nd2             5C49     ss4             48DD     
c1a             68AD     nd5             5C63     ss5             490D     
c1b             68B9     nd6             5C7D+    ss6             4949     
c1c             68C7     nd7             5C64     ss7             48C0     
c1d             68DA     new1            6978     ss8             4932     
c1e             68ED     new2            697A     ss9             4945     
c1f             68FC     new3            697C     sstrc1          6082     
c2              6725     newlabel        5A03     sstrc2          607A     
c20             6911     newsub          6115     stacknum       =6DAB     
c3              673A     nextonpage      43AA     stackop        =6CAD     
c4              6749     nextvar         5D08     stackoper      =0090     
c5              6758     nextvarinc      5D07     start          =4200     
c6              6767     nh1             5CC7     sv4             54E7     
c7              677B     nh2             5CB4     symflag         6976     
c8              6786     nl0             5A74     syntaxer       =0001     
c9              6795     nl1             5A94     systime        =0021     
ca              67A3     nl10            5A9C     tabcmnd         4A7C     
calcer          600E     nl11            5A57     tablabel       =8000     
calcer1         6012     nl3             5AC0     tbl_adc         53E1     
calcer2         6016     nl5             5A5B     tbl_bit         53D9     
calcer3         601A     nl6             5A61     tbl_call        53CE     
calcer4         601E     nolabel        =0004     tbl_dec         53C2     
calcer5         600A     numbin          5CE4     tbl_im          53BF     
calcmem         47C0     numbin1         5CDF     tbl_in          53AE     
capslabel       6973     numdec          5C36     tbl_jp          53D7     
capsletter      605F     numdec1         5C94     tbl_jr          53E7     
cb              67B1     numeric         6058     tbl_ld1         538C     
cc              67C5     numhex          5CAF     tbl_ld2         5390     
cd              67E9     numhex1         5CAC     tbl_ld3         539E     
cd1             4A54     numopenfile     6981     tbl_ld4         53A0     
cd2             4A61     numstring      =6997     tbl_ld5         53A5     
cd3             4A70     nv1             5D23     tbl_ld6         53A7     
cd4             4A6A     objcopy         49ED     tbl_pop         53AA     
ce              67F7     objcopy2        49F9     tbl_rst         53B7     
cf              6809     oc1             4A33     tblloadfile    =7C00     
ch1             5C23     oc2             4A49     tbloneop        602A     
ch2             5C32     od1             5771     tbltwoop        6031     
char            5C1E     od10            571F+    tc1             4574     
charvar         54A5     od100           5751     tc2             4579     
clear          =0056     od101           5724     tc3             4589     
close          =0012     od4             57B6     tc4             4599     
cmndbuf        =69A8     odo2            57F7     textpage       =6994     
cmnddetect      4A51     odone           57EC     timecalc        4558     
cmnderror       5385     ods1            58E3     timecomp       =69A5     
combuffer      =6EA9     ods10           5936     to01            5D68     
comstr1         4223     ods100          594B     to1             5D6D     
comstr10        4270     ods101          5966     to11            5D7A     
comstr11        42A1     ods102          5976     to2             5D81     
comstr12        42A7     ods2            58F6     to3             5D8B     
comstr13        4294     ods3            5902     to4             5D8F     
comstr14        42B3     ods4            5927     to5             5D9A     
comstr15        42AD     ods5            590E     to6             5DA5     
comstr2         4218     ods6            591A     totalmem        644F     
comstr4         42CC     odsex           5948     true            5EFB     
comstr5         422E     odsex1          5932     tv1             5E96     
comstr6         424D     odskob          58C6     tv10            5F11     
comstr7         4258     odt1            582B     tv11            5F21     
comstr8         4260     odt10           58B3     tv12            5F31     
comstr9         42E4     odt2            583D     tv12a           5F39     
continue        666F     odt3            584E     tv13            5F43     
create         =000A     odt4            5864     tv14            5F53     
createsub       45A2     odt6            5870     tv15            5F63     
crlf            6708     odt7            587C     tv2             5E9E     
curdir         =001E     odt8            5888     tv3             5EBA     
curdisk        =0002     odt9            589E     tv4             5EC7     
currentfile     6982     odtwo           5817     tv5             5ECC     
cursor         =0053     odv1            57DF     tv6             5ED7     
curspec         4646     odv2            57DD     tv7             5EE2     
curspec1        4667     odv3            57DC     tv8             5EED     
cv1             54C5     odv4            57BF+    tv9             5F03     
cv2             54A9     odvar           57B7     twooperation    5D4D+    
cv2a            54B8     onecode         5325     twovalue        5E90     
cv3             54C7     oneoperation    5DAB     var1           =698D     
databuf        =6BAE     onevalue        5FA3     var2           =698F     
dbinstrer      =000A     oo1             5DC2     varfmem         6475     
dephaseer      =0007     oo2             5DD3     vartmem         645D     
div             5F8B     oo3             5DB5     waitkey        =0030     
div1            5F7F     oo4             5DCB     whelabel        5BFE     
divide          5F74     oo5             5DBE     wordbuf        =69B0     
divzeroer      =000E     open           =0011     wrchar         =0058     
dss             4812     openfile        6969     write          =0014     
edss1           4833     operand1       =698B     
edss3           484C+    operand2       =698C     
emm_fn4        =00C4+    operdetect      56EC     
